(lp0
(lp1
I1
aF17.19
aF0.029
aa(lp2
I2
aF17.29
aF0.029
aa(lp3
I3
aF18.0
aF0.023
aa(lp4
I4
aF18.3
aF0.022
aa(lp5
I5
aF19.01
aF0.022
aa(lp6
I6
aF19.32
aF0.021
aa(lp7
I7
aF20.02
aF0.02
aa(lp8
I8
aF20.33
aF0.018
aa(lp9
I9
aF21.03
aF0.016
aa(lp10
I10
aF21.34
aF0.015
aa(lp11
I11
aF22.04
aF0.014
aa(lp12
I12
aF22.35
aF0.015
aa(lp13
I13
aF23.05
aF0.015
aa(lp14
I14
aF23.36
aF0.014
aa(lp15
I15
aF0.06
aF0.013
aa(lp16
I16
aF0.37
aF0.012
aa(lp17
I17
aF1.07
aF0.012
aa(lp18
I18
aF1.38
aF0.01
aa(lp19
I19
aF2.08
aF0.009
aa(lp20
I20
aF2.39
aF0.009
aa(lp21
I21
aF3.09
aF0.008
aa(lp22
I22
aF3.4
aF0.008
aa(lp23
I23
aF4.1
aF0.007
aa(lp24
I24
aF4.41
aF0.007
aa(lp25
I25
aF5.12
aF0.006
aa(lp26
I26
aF5.42
aF0.007
aa(lp27
I27
aF6.13
aF0.007
aa(lp28
I28
aF6.43
aF0.007
aa(lp29
I29
aF7.14
aF0.007
aa(lp30
I30
aF7.44
aF0.007
aa(lp31
I31
aF8.15
aF0.007
aa(lp32
I32
aF8.45
aF0.006
aa(lp33
I33
aF9.16
aF0.006
aa(lp34
I34
aF9.46
aF0.005
aa(lp35
I35
aF10.17
aF0.37
aa(lp36
I36
aF10.47
aF0.397
aa(lp37
I37
aF11.18
aF0.378
aa(lp38
I38
aF11.48
aF0.37
aa(lp39
I39
aF12.19
aF0.363
aa(lp40
I40
aF12.49
aF0.349
aa(lp41
I41
aF13.2
aF0.344
aa(lp42
I42
aF13.5
aF0.337
aa(lp43
I43
aF14.21
aF0.329
aa(lp44
I44
aF14.51
aF0.293
aa(lp45
I45
aF15.22
aF0.276
aa(lp46
I46
aF15.53
aF0.245
aa(lp47
I47
aF16.23
aF0.215
aa(lp48
I48
aF16.54
aF0.196
aa(lp49
I49
aF17.24
aF0.184
aa(lp50
I50
aF17.55
aF0.175
aa(lp51
I51
aF18.25
aF0.17
aa(lp52
I52
aF18.56
aF0.165
aa(lp53
I53
aF19.26
aF0.163
aa(lp54
I54
aF19.57
aF0.16
aa(lp55
I55
aF20.27
aF0.16
aa(lp56
I56
aF20.58
aF0.159
aa(lp57
I57
aF21.28
aF0.16
aa(lp58
I58
aF21.59
aF0.159
aa(lp59
I59
aF22.29
aF0.159
aa(lp60
I60
aF23.0
aF0.16
aa(lp61
I61
aF23.3
aF0.162
aa(lp62
I62
aF0.01
aF0.163
aa(lp63
I63
aF0.31
aF0.162
aa(lp64
I64
aF1.02
aF0.163
aa(lp65
I65
aF1.32
aF0.162
aa(lp66
I66
aF2.03
aF0.159
aa(lp67
I67
aF2.34
aF0.158
aa(lp68
I68
aF3.04
aF0.162
aa(lp69
I69
aF3.35
aF0.156
aa(lp70
I70
aF4.05
aF0.156
aa(lp71
I71
aF4.36
aF0.155
aa(lp72
I72
aF5.06
aF0.156
aa(lp73
I73
aF5.37
aF0.154
aa(lp74
I74
aF6.07
aF0.155
aa(lp75
I75
aF6.38
aF0.152
aa(lp76
I76
aF7.08
aF0.15
aa(lp77
I77
aF7.39
aF0.151
aa(lp78
I78
aF8.09
aF0.15
aa(lp79
I79
aF8.4
aF0.148
aa(lp80
I80
aF9.1
aF0.147
aa(lp81
I81
aF9.41
aF0.145
aa(lp82
I82
aF10.11
aF0.143
aa(lp83
I83
aF10.42
aF0.145
aa(lp84
I84
aF11.12
aF0.143
aa(lp85
I85
aF11.43
aF0.143
aa(lp86
I86
aF12.14
aF0.139
aa(lp87
I87
aF12.44
aF0.136
aa(lp88
I88
aF13.15
aF0.133
aa(lp89
I89
aF13.45
aF0.133
aa(lp90
I90
aF14.16
aF0.134
aa(lp91
I91
aF14.46
aF0.129
aa(lp92
I92
aF15.17
aF0.128
aa(lp93
I93
aF15.47
aF0.126
aa(lp94
I94
aF16.18
aF0.127
aa(lp95
I95
aF16.48
aF0.126
aa(lp96
I96
aF17.19
aF0.122
aa(lp97
I97
aF17.49
aF0.122
aa(lp98
I98
aF18.2
aF0.121
aa(lp99
I99
aF18.5
aF0.12
aa(lp100
I100
aF19.21
aF0.117
aa(lp101
I101
aF19.51
aF0.115
aa(lp102
I102
aF20.22
aF0.115
aa(lp103
I103
aF20.52
aF0.115
aa(lp104
I104
aF21.23
aF0.112
aa(lp105
I105
aF21.54
aF0.113
aa(lp106
I106
aF22.24
aF0.109
aa(lp107
I107
aF22.55
aF0.11
aa(lp108
I108
aF23.25
aF0.108
aa(lp109
I109
aF23.56
aF0.107
aa(lp110
I110
aF0.26
aF0.106
aa(lp111
I111
aF0.57
aF0.103
aa(lp112
I112
aF1.27
aF0.099
aa(lp113
I113
aF1.58
aF0.099
aa(lp114
I114
aF2.28
aF0.097
aa(lp115
I115
aF2.59
aF0.096
aa(lp116
I116
aF3.29
aF0.092
aa(lp117
I117
aF4.0
aF0.09
aa(lp118
I118
aF4.3
aF0.088
aa(lp119
I119
aF5.01
aF0.086
aa(lp120
I120
aF5.32
aF0.086
aa(lp121
I121
aF6.02
aF0.085
aa(lp122
I122
aF6.33
aF0.084
aa(lp123
I123
aF7.03
aF0.081
aa(lp124
I124
aF7.34
aF0.082
aa(lp125
I125
aF8.04
aF0.08
aa(lp126
I126
aF8.35
aF0.079
aa(lp127
I127
aF9.05
aF0.079
aa(lp128
I128
aF9.36
aF0.076
aa(lp129
I129
aF10.06
aF0.076
aa(lp130
I130
aF10.37
aF0.076
aa(lp131
I131
aF11.07
aF0.076
aa(lp132
I132
aF11.38
aF0.075
aa(lp133
I133
aF12.08
aF0.072
aa(lp134
I134
aF12.39
aF0.071
aa(lp135
I135
aF13.09
aF0.069
aa(lp136
I136
aF13.4
aF0.068
aa(lp137
I137
aF14.1
aF0.067
aa(lp138
I138
aF14.41
aF0.067
aa(lp139
I139
aF15.11
aF0.063
aa(lp140
I140
aF15.42
aF0.06
aa(lp141
I141
aF16.13
aF0.061
aa(lp142
I142
aF16.43
aF0.059
aa(lp143
I143
aF17.14
aF0.054
aa(lp144
I144
aF17.44
aF0.051
aa(lp145
I145
aF18.15
aF0.051
aa(lp146
I146
aF18.45
aF0.049
aa(lp147
I147
aF19.16
aF0.049
aa(lp148
I148
aF19.46
aF0.047
aa(lp149
I149
aF20.17
aF0.046
aa(lp150
I150
aF20.47
aF0.048
aa(lp151
I151
aF21.18
aF0.048
aa(lp152
I152
aF21.48
aF0.044
aa(lp153
I153
aF22.19
aF0.043
aa(lp154
I154
aF22.49
aF0.044
aa(lp155
I155
aF23.2
aF0.043
aa(lp156
I156
aF23.5
aF0.043
aa(lp157
I157
aF0.21
aF0.042
aa(lp158
I158
aF0.51
aF0.04
aa(lp159
I159
aF1.22
aF0.041
aa(lp160
I160
aF1.53
aF0.04
aa(lp161
I161
aF2.23
aF0.041
aa(lp162
I162
aF2.54
aF0.042
aa(lp163
I163
aF3.24
aF0.041
aa(lp164
I164
aF3.55
aF0.039
aa(lp165
I165
aF4.25
aF0.039
aa(lp166
I166
aF4.56
aF0.041
aa(lp167
I167
aF5.26
aF0.04
aa(lp168
I168
aF5.57
aF0.04
aa(lp169
I169
aF6.27
aF0.04
aa(lp170
I170
aF6.58
aF0.038
aa(lp171
I171
aF7.28
aF0.036
aa(lp172
I172
aF7.59
aF0.035
aa(lp173
I173
aF8.29
aF0.033
aa(lp174
I174
aF9.0
aF0.033
aa(lp175
I175
aF9.3
aF0.031
aa(lp176
I176
aF10.01
aF0.029
aa(lp177
I177
aF10.31
aF0.03
aa(lp178
I178
aF11.02
aF0.029
aa(lp179
I179
aF11.33
aF0.029
aa(lp180
I180
aF12.03
aF0.028
aa(lp181
I181
aF12.34
aF0.028
aa(lp182
I182
aF13.04
aF0.023
aa(lp183
I183
aF13.35
aF0.023
aa(lp184
I184
aF14.05
aF0.022
aa(lp185
I185
aF14.36
aF0.021
aa(lp186
I186
aF15.06
aF0.022
aa(lp187
I187
aF15.37
aF0.021
aa(lp188
I188
aF16.07
aF0.02
aa(lp189
I189
aF16.38
aF0.019
aa(lp190
I190
aF17.08
aF0.018
aa(lp191
I191
aF17.39
aF0.015
aa(lp192
I192
aF18.09
aF0.016
aa(lp193
I193
aF18.4
aF0.014
aa(lp194
I194
aF19.1
aF0.014
aa(lp195
I195
aF19.41
aF0.014
aa(lp196
I196
aF20.11
aF0.014
aa(lp197
I197
aF20.42
aF0.013
aa(lp198
I198
aF21.12
aF0.013
aa(lp199
I199
aF21.43
aF0.013
aa(lp200
I200
aF22.14
aF0.012
aa(lp201
I201
aF22.44
aF0.013
aa(lp202
I202
aF23.15
aF0.01
aa(lp203
I203
aF23.45
aF0.008
aa(lp204
I204
aF0.16
aF0.007
aa(lp205
I205
aF0.46
aF0.007
aa(lp206
I206
aF1.17
aF0.007
aa(lp207
I207
aF1.47
aF0.007
aa(lp208
I208
aF8.5
aF0.007
aa(lp209
I209
aF9.2
aF0.001
aa(lp210
I210
aF9.51
aF0.001
aa(lp211
I211
aF10.21
aF0.0
aa(lp212
I212
aF10.52
aF0.0
aa(lp213
I213
aF11.22
aF0.0
aa(lp214
I214
aF11.53
aF0.0
aa(lp215
I215
aF12.23
aF0.0
aa(lp216
I216
aF12.54
aF0.0
aa(lp217
I217
aF13.24
aF0.0
aa(lp218
I218
aF13.55
aF0.001
aa(lp219
I219
aF14.25
aF0.0
aa(lp220
I220
aF14.56
aF0.0
aa(lp221
I221
aF15.27
aF0.0
aa(lp222
I222
aF15.57
aF0.001
aa(lp223
I223
aF16.28
aF0.001
aa(lp224
I224
aF16.58
aF0.0
aa(lp225
I225
aF17.29
aF0.0
aa(lp226
I226
aF17.59
aF0.0
aa(lp227
I227
aF18.3
aF0.0
aa(lp228
I228
aF19.0
aF0.0
aa(lp229
I229
aF19.31
aF0.0
aa(lp230
I230
aF20.01
aF0.0
aa(lp231
I231
aF20.32
aF0.0
aa(lp232
I232
aF21.02
aF0.0
aa(lp233
I233
aF21.33
aF0.0
aa(lp234
I234
aF22.03
aF0.0
aa(lp235
I235
aF22.34
aF0.0
aa(lp236
I236
aF23.04
aF0.0
aa(lp237
I237
aF23.35
aF0.0
aa(lp238
I238
aF0.06
aF0.0
aa(lp239
I239
aF0.36
aF0.0
aa(lp240
I240
aF1.07
aF0.0
aa(lp241
I241
aF1.37
aF0.0
aa(lp242
I242
aF2.08
aF0.0
aa(lp243
I243
aF2.38
aF0.0
aa(lp244
I244
aF3.09
aF0.0
aa(lp245
I245
aF3.39
aF0.0
aa(lp246
I246
aF4.1
aF0.0
aa(lp247
I247
aF4.4
aF0.0
aa(lp248
I248
aF5.11
aF0.0
aa(lp249
I249
aF5.41
aF0.0
aa(lp250
I250
aF6.12
aF0.0
aa(lp251
I251
aF6.42
aF0.0
aa(lp252
I252
aF7.13
aF0.0
aa(lp253
I253
aF7.43
aF0.0
aa(lp254
I254
aF8.14
aF0.0
aa(lp255
I255
aF8.45
aF0.087
aa(lp256
I256
aF9.15
aF0.383
aa(lp257
I257
aF9.46
aF0.368
aa(lp258
I258
aF10.16
aF0.374
aa(lp259
I259
aF10.47
aF0.375
aa(lp260
I260
aF11.17
aF0.389
aa(lp261
I261
aF11.48
aF0.407
aa(lp262
I262
aF12.18
aF0.427
aa(lp263
I263
aF12.49
aF0.423
aa(lp264
I264
aF13.19
aF0.447
aa(lp265
I265
aF13.5
aF0.447
aa(lp266
I266
aF14.2
aF0.462
aa(lp267
I267
aF14.51
aF0.465
aa(lp268
I268
aF15.21
aF0.468
aa(lp269
I269
aF15.52
aF0.477
aa(lp270
I270
aF16.22
aF0.486
aa(lp271
I271
aF16.53
aF0.483
aa(lp272
I272
aF17.23
aF0.485
aa(lp273
I273
aF17.54
aF0.437
aa(lp274
I274
aF18.25
aF0.439
aa(lp275
I275
aF18.55
aF0.442
aa(lp276
I276
aF19.26
aF0.447
aa(lp277
I277
aF19.56
aF0.456
aa(lp278
I278
aF20.27
aF0.454
aa(lp279
I279
aF20.57
aF0.451
aa(lp280
I280
aF21.28
aF0.448
aa(lp281
I281
aF21.58
aF0.455
aa(lp282
I282
aF22.29
aF0.456
aa(lp283
I283
aF22.59
aF0.456
aa(lp284
I284
aF23.3
aF0.455
aa(lp285
I285
aF0.0
aF0.457
aa(lp286
I286
aF0.31
aF0.46
aa(lp287
I287
aF1.01
aF0.453
aa(lp288
I288
aF1.32
aF0.455
aa(lp289
I289
aF2.02
aF0.451
aa(lp290
I290
aF2.33
aF0.457
aa(lp291
I291
aF3.04
aF0.454
aa(lp292
I292
aF3.34
aF0.454
aa(lp293
I293
aF4.05
aF0.454
aa(lp294
I294
aF4.35
aF0.458
aa(lp295
I295
aF5.06
aF0.459
aa(lp296
I296
aF5.36
aF0.459
aa(lp297
I297
aF6.07
aF0.457
aa(lp298
I298
aF6.37
aF0.464
aa(lp299
I299
aF7.08
aF0.474
aa(lp300
I300
aF7.38
aF0.478
aa(lp301
I301
aF8.09
aF0.481
aa(lp302
I302
aF8.39
aF0.472
aa(lp303
I303
aF9.1
aF0.483
aa(lp304
I304
aF9.4
aF0.476
aa(lp305
I305
aF10.11
aF0.463
aa(lp306
I306
aF10.41
aF0.452
aa(lp307
I307
aF11.12
aF0.453
aa(lp308
I308
aF11.43
aF0.452
aa(lp309
I309
aF12.13
aF0.443
aa(lp310
I310
aF12.44
aF0.445
aa(lp311
I311
aF13.14
aF0.443
aa(lp312
I312
aF13.45
aF0.448
aa(lp313
I313
aF14.15
aF0.441
aa(lp314
I314
aF14.46
aF0.442
aa(lp315
I315
aF15.16
aF0.44
aa(lp316
I316
aF15.47
aF0.453
aa(lp317
I317
aF16.17
aF0.44
aa(lp318
I318
aF16.48
aF0.443
aa(lp319
I319
aF17.18
aF0.442
aa(lp320
I320
aF17.49
aF0.442
aa(lp321
I321
aF18.19
aF0.439
aa(lp322
I322
aF18.5
aF0.44
aa(lp323
I323
aF19.2
aF0.44
aa(lp324
I324
aF19.51
aF0.435
aa(lp325
I325
aF20.21
aF0.439
aa(lp326
I326
aF20.52
aF0.437
aa(lp327
I327
aF21.23
aF0.436
aa(lp328
I328
aF21.53
aF0.439
aa(lp329
I329
aF22.24
aF0.43
aa(lp330
I330
aF22.54
aF0.429
aa(lp331
I331
aF23.25
aF0.43
aa(lp332
I332
aF23.55
aF0.427
aa(lp333
I333
aF0.26
aF0.431
aa(lp334
I334
aF0.56
aF0.429
aa(lp335
I335
aF1.27
aF0.426
aa(lp336
I336
aF1.57
aF0.423
aa(lp337
I337
aF2.28
aF0.422
aa(lp338
I338
aF2.58
aF0.421
aa(lp339
I339
aF3.29
aF0.418
aa(lp340
I340
aF3.59
aF0.418
aa(lp341
I341
aF4.3
aF0.413
aa(lp342
I342
aF5.0
aF0.41
aa(lp343
I343
aF5.31
aF0.409
aa(lp344
I344
aF6.02
aF0.41
aa(lp345
I345
aF6.32
aF0.398
aa(lp346
I346
aF7.03
aF0.407
aa(lp347
I347
aF7.33
aF0.401
aa(lp348
I348
aF8.04
aF0.4
aa(lp349
I349
aF8.34
aF0.407
aa(lp350
I350
aF9.05
aF0.406
aa(lp351
I351
aF9.35
aF0.4
aa(lp352
I352
aF10.06
aF0.4
aa(lp353
I353
aF10.36
aF0.394
aa(lp354
I354
aF11.07
aF0.398
aa(lp355
I355
aF11.37
aF0.398
aa(lp356
I356
aF12.08
aF0.398
aa(lp357
I357
aF12.38
aF0.397
aa(lp358
I358
aF13.09
aF0.399
aa(lp359
I359
aF13.39
aF0.393
aa(lp360
I360
aF14.1
aF0.398
aa(lp361
I361
aF14.41
aF0.393
aa(lp362
I362
aF15.11
aF0.39
aa(lp363
I363
aF15.42
aF0.387
aa(lp364
I364
aF16.12
aF0.384
aa(lp365
I365
aF16.43
aF0.383
aa(lp366
I366
aF17.13
aF0.383
aa(lp367
I367
aF17.44
aF0.388
aa(lp368
I368
aF18.14
aF0.374
aa(lp369
I369
aF18.45
aF0.381
aa(lp370
I370
aF19.15
aF0.377
aa(lp371
I371
aF19.46
aF0.379
aa(lp372
I372
aF20.16
aF0.377
aa(lp373
I373
aF20.47
aF0.377
aa(lp374
I374
aF21.17
aF0.374
aa(lp375
I375
aF21.48
aF0.369
aa(lp376
I376
aF22.18
aF0.368
aa(lp377
I377
aF22.49
aF0.367
aa(lp378
I378
aF23.2
aF0.363
aa(lp379
I379
aF23.5
aF0.358
aa(lp380
I380
aF0.21
aF0.353
aa(lp381
I381
aF0.51
aF0.352
aa(lp382
I382
aF1.22
aF0.347
aa(lp383
I383
aF1.52
aF0.347
aa(lp384
I384
aF2.23
aF0.343
aa(lp385
I385
aF2.53
aF0.34
aa(lp386
I386
aF3.24
aF0.338
aa(lp387
I387
aF3.54
aF0.34
aa(lp388
I388
aF4.25
aF0.338
aa(lp389
I389
aF4.55
aF0.335
aa(lp390
I390
aF5.26
aF0.338
aa(lp391
I391
aF5.56
aF0.332
aa(lp392
I392
aF6.27
aF0.326
aa(lp393
I393
aF6.57
aF0.325
aa(lp394
I394
aF7.28
aF0.324
aa(lp395
I395
aF7.59
aF0.322
aa(lp396
I396
aF8.29
aF0.327
aa(lp397
I397
aF9.0
aF0.321
aa(lp398
I398
aF9.3
aF0.32
aa(lp399
I399
aF10.01
aF0.318
aa(lp400
I400
aF10.31
aF0.325
aa(lp401
I401
aF11.02
aF0.319
aa(lp402
I402
aF11.32
aF0.314
aa(lp403
I403
aF12.03
aF0.313
aa(lp404
I404
aF12.33
aF0.326
aa(lp405
I405
aF13.04
aF0.325
aa(lp406
I406
aF13.34
aF0.321
aa(lp407
I407
aF14.05
aF0.319
aa(lp408
I408
aF14.35
aF0.318
aa(lp409
I409
aF15.06
aF0.319
aa(lp410
I410
aF15.36
aF0.312
aa(lp411
I411
aF16.07
aF0.319
aa(lp412
I412
aF16.38
aF0.308
aa(lp413
I413
aF17.08
aF0.308
aa(lp414
I414
aF17.39
aF0.297
aa(lp415
I415
aF18.09
aF0.305
aa(lp416
I416
aF18.4
aF0.304
aa(lp417
I417
aF19.1
aF0.297
aa(lp418
I418
aF19.41
aF0.296
aa(lp419
I419
aF20.11
aF0.293
aa(lp420
I420
aF20.42
aF0.29
aa(lp421
I421
aF21.12
aF0.289
aa(lp422
I422
aF21.43
aF0.293
aa(lp423
I423
aF22.13
aF0.292
aa(lp424
I424
aF22.44
aF0.288
aa(lp425
I425
aF23.14
aF0.284
aa(lp426
I426
aF23.45
aF0.275
aa(lp427
I427
aF0.15
aF0.278
aa(lp428
I428
aF0.46
aF0.27
aa(lp429
I429
aF1.17
aF0.271
aa(lp430
I430
aF1.47
aF0.26
aa(lp431
I431
aF2.18
aF0.261
aa(lp432
I432
aF2.48
aF0.255
aa(lp433
I433
aF3.19
aF0.251
aa(lp434
I434
aF3.49
aF0.249
aa(lp435
I435
aF4.2
aF0.243
aa(lp436
I436
aF4.5
aF0.238
aa(lp437
I437
aF5.21
aF0.236
aa(lp438
I438
aF5.51
aF0.23
aa(lp439
I439
aF6.22
aF0.228
aa(lp440
I440
aF6.52
aF0.224
aa(lp441
I441
aF7.23
aF0.22
aa(lp442
I442
aF7.53
aF0.217
aa(lp443
I443
aF8.24
aF0.214
aa(lp444
I444
aF8.54
aF0.212
aa(lp445
I445
aF9.25
aF0.213
aa(lp446
I446
aF9.56
aF0.207
aa(lp447
I447
aF10.26
aF0.205
aa(lp448
I448
aF10.57
aF0.209
aa(lp449
I449
aF11.27
aF0.203
aa(lp450
I450
aF11.58
aF0.197
aa(lp451
I451
aF12.28
aF0.192
aa(lp452
I452
aF12.59
aF0.19
aa(lp453
I453
aF13.29
aF0.188
aa(lp454
I454
aF14.0
aF0.189
aa(lp455
I455
aF14.3
aF0.19
aa(lp456
I456
aF15.01
aF0.182
aa(lp457
I457
aF15.31
aF0.174
aa(lp458
I458
aF16.02
aF0.174
aa(lp459
I459
aF16.32
aF0.175
aa(lp460
I460
aF17.03
aF0.173
aa(lp461
I461
aF17.33
aF0.169
aa(lp462
I462
aF18.04
aF0.162
aa(lp463
I463
aF18.34
aF0.162
aa(lp464
I464
aF19.05
aF0.158
aa(lp465
I465
aF19.36
aF0.158
aa(lp466
I466
aF20.06
aF0.153
aa(lp467
I467
aF20.37
aF0.136
aa(lp468
I468
aF21.07
aF0.135
aa(lp469
I469
aF21.38
aF0.135
aa(lp470
I470
aF22.08
aF0.131
aa(lp471
I471
aF22.39
aF0.127
aa(lp472
I472
aF23.09
aF0.124
aa(lp473
I473
aF23.4
aF0.124
aa(lp474
I474
aF0.1
aF0.12
aa(lp475
I475
aF0.41
aF0.12
aa(lp476
I476
aF1.11
aF0.116
aa(lp477
I477
aF1.42
aF0.113
aa(lp478
I478
aF2.12
aF0.113
aa(lp479
I479
aF2.43
aF0.109
aa(lp480
I480
aF3.13
aF0.108
aa(lp481
I481
aF3.44
aF0.107
aa(lp482
I482
aF4.15
aF0.105
aa(lp483
I483
aF4.45
aF0.099
aa(lp484
I484
aF5.16
aF0.097
aa(lp485
I485
aF5.46
aF0.093
aa(lp486
I486
aF6.17
aF0.091
aa(lp487
I487
aF6.47
aF0.091
aa(lp488
I488
aF7.18
aF0.088
aa(lp489
I489
aF7.48
aF0.089
aa(lp490
I490
aF8.19
aF0.089
aa(lp491
I491
aF8.49
aF0.087
aa(lp492
I492
aF9.2
aF0.084
aa(lp493
I493
aF9.5
aF0.082
aa(lp494
I494
aF10.21
aF0.08
aa(lp495
I495
aF10.51
aF0.079
aa(lp496
I496
aF11.22
aF0.076
aa(lp497
I497
aF11.52
aF0.072
aa(lp498
I498
aF12.23
aF0.07
aa(lp499
I499
aF12.54
aF0.069
aa(lp500
I500
aF13.24
aF0.068
aa(lp501
I501
aF13.55
aF0.065
aa(lp502
I502
aF14.25
aF0.065
aa(lp503
I503
aF14.56
aF0.062
aa(lp504
I504
aF15.26
aF0.061
aa(lp505
I505
aF15.57
aF0.06
aa(lp506
I506
aF16.27
aF0.058
aa(lp507
I507
aF16.58
aF0.057
aa(lp508
I508
aF17.28
aF0.056
aa(lp509
I509
aF17.59
aF0.056
aa(lp510
I510
aF18.29
aF0.055
aa(lp511
I511
aF19.0
aF0.054
aa(lp512
I512
aF19.3
aF0.052
aa(lp513
I513
aF20.01
aF0.052
aa(lp514
I514
aF20.31
aF0.05
aa(lp515
I515
aF21.02
aF0.049
aa(lp516
I516
aF21.33
aF0.048
aa(lp517
I517
aF22.03
aF0.048
aa(lp518
I518
aF22.34
aF0.046
aa(lp519
I519
aF23.04
aF0.046
aa(lp520
I520
aF23.35
aF0.046
aa(lp521
I521
aF0.05
aF0.046
aa(lp522
I522
aF0.36
aF0.045
aa(lp523
I523
aF1.06
aF0.044
aa(lp524
I524
aF1.37
aF0.041
aa(lp525
I525
aF2.07
aF0.039
aa(lp526
I526
aF2.38
aF0.039
aa(lp527
I527
aF3.08
aF0.038
aa(lp528
I528
aF3.39
aF0.038
aa(lp529
I529
aF4.09
aF0.036
aa(lp530
I530
aF4.4
aF0.036
aa(lp531
I531
aF5.1
aF0.034
aa(lp532
I532
aF5.41
aF0.035
aa(lp533
I533
aF6.11
aF0.035
aa(lp534
I534
aF6.42
aF0.035
aa(lp535
I535
aF7.13
aF0.033
aa(lp536
I536
aF7.43
aF0.034
aa(lp537
I537
aF8.14
aF0.033
aa(lp538
I538
aF8.44
aF0.032
aa(lp539
I539
aF9.15
aF0.03
aa(lp540
I540
aF9.45
aF0.029
aa(lp541
I541
aF10.16
aF0.031
aa(lp542
I542
aF10.46
aF0.029
aa(lp543
I543
aF11.17
aF0.029
aa(lp544
I544
aF11.47
aF0.029
aa(lp545
I545
aF12.18
aF0.029
aa(lp546
I546
aF12.48
aF0.028
aa(lp547
I547
aF13.19
aF0.028
aa(lp548
I548
aF13.49
aF0.029
aa(lp549
I549
aF14.2
aF0.027
aa(lp550
I550
aF14.5
aF0.026
aa(lp551
I551
aF15.21
aF0.027
aa(lp552
I552
aF15.52
aF0.025
aa(lp553
I553
aF16.22
aF0.026
aa(lp554
I554
aF16.53
aF0.023
aa(lp555
I555
aF17.23
aF0.026
aa(lp556
I556
aF17.54
aF0.027
aa(lp557
I557
aF18.24
aF0.025
aa(lp558
I558
aF18.55
aF0.025
aa(lp559
I559
aF19.25
aF0.024
aa(lp560
I560
aF19.56
aF0.023
aa(lp561
I561
aF20.26
aF0.024
aa(lp562
I562
aF20.57
aF0.022
aa(lp563
I563
aF21.27
aF0.022
aa(lp564
I564
aF21.58
aF0.021
aa(lp565
I565
aF22.28
aF0.022
aa(lp566
I566
aF22.59
aF0.014
aa(lp567
I567
aF23.29
aF0.012
aa(lp568
I568
aF0.0
aF0.012
aa(lp569
I569
aF0.31
aF0.011
aa(lp570
I570
aF1.01
aF0.009
aa(lp571
I571
aF1.32
aF0.008
aa(lp572
I572
aF2.02
aF0.009
aa(lp573
I573
aF2.33
aF0.008
aa(lp574
I574
aF3.03
aF0.008
aa(lp575
I575
aF3.34
aF0.007
aa(lp576
I576
aF4.04
aF0.008
aa(lp577
I577
aF4.35
aF0.007
aa(lp578
I578
aF5.05
aF0.007
aa(lp579
I579
aF5.36
aF0.007
aa(lp580
I580
aF6.06
aF0.007
aa(lp581
I581
aF6.37
aF0.007
aa(lp582
I582
aF7.07
aF0.007
aa(lp583
I583
aF7.38
aF0.007
aa(lp584
I584
aF8.08
aF0.007
aa(lp585
I585
aF8.39
aF0.006
aa(lp586
I586
aF9.1
aF0.007
aa(lp587
I587
aF9.4
aF0.006
aa(lp588
I588
aF10.11
aF0.006
aa(lp589
I589
aF10.41
aF0.006
aa(lp590
I590
aF11.12
aF0.005
aa(lp591
I591
aF11.42
aF0.005
aa(lp592
I592
aF12.13
aF0.005
aa(lp593
I593
aF12.43
aF0.003
aa(lp594
I594
aF13.14
aF0.004
aa(lp595
I595
aF13.44
aF0.003
aa(lp596
I596
aF14.15
aF0.003
aa(lp597
I597
aF14.45
aF0.003
aa(lp598
I598
aF15.16
aF0.002
aa(lp599
I599
aF15.46
aF0.001
aa(lp600
I600
aF16.17
aF0.0
aa(lp601
I601
aF16.47
aF0.002
aa(lp602
I602
aF17.18
aF0.001
aa(lp603
I603
aF17.49
aF0.003
aa(lp604
I604
aF18.19
aF0.001
aa(lp605
I605
aF18.5
aF0.001
aa(lp606
I606
aF19.2
aF0.0
aa(lp607
I607
aF19.51
aF0.001
aa(lp608
I608
aF20.21
aF0.0
aa(lp609
I609
aF20.52
aF0.001
aa(lp610
I610
aF21.22
aF0.001
aa(lp611
I611
aF21.53
aF0.001
aa(lp612
I612
aF22.23
aF0.0
aa(lp613
I613
aF22.54
aF0.0
aa(lp614
I614
aF23.24
aF0.0
aa(lp615
I615
aF23.55
aF0.0
aa(lp616
I616
aF0.25
aF0.0
aa(lp617
I617
aF0.56
aF0.001
aa(lp618
I618
aF1.26
aF0.0
aa(lp619
I619
aF1.57
aF0.0
aa(lp620
I620
aF2.28
aF0.0
aa(lp621
I621
aF2.58
aF0.0
aa(lp622
I622
aF3.29
aF0.0
aa(lp623
I623
aF3.59
aF0.0
aa(lp624
I624
aF4.3
aF0.0
aa(lp625
I625
aF5.0
aF0.0
aa(lp626
I626
aF5.31
aF0.0
aa(lp627
I627
aF6.01
aF0.001
aa(lp628
I628
aF6.32
aF0.0
aa(lp629
I629
aF7.02
aF0.0
aa(lp630
I630
aF7.33
aF0.0
aa(lp631
I631
aF8.03
aF0.0
aa(lp632
I632
aF8.34
aF0.0
aa(lp633
I633
aF9.04
aF0.0
aa(lp634
I634
aF9.35
aF0.0
aa(lp635
I635
aF10.05
aF0.0
aa(lp636
I636
aF10.36
aF0.0
aa(lp637
I637
aF11.06
aF0.0
aa(lp638
I638
aF11.37
aF0.001
aa(lp639
I639
aF12.08
aF0.0
aa(lp640
I640
aF12.38
aF0.0
aa(lp641
I641
aF13.09
aF0.0
aa(lp642
I642
aF13.39
aF0.0
aa(lp643
I643
aF14.1
aF0.0
aa(lp644
I644
aF14.4
aF0.0
aa(lp645
I645
aF15.11
aF0.188
aa(lp646
I646
aF15.41
aF0.527
aa(lp647
I647
aF16.12
aF0.504
aa(lp648
I648
aF16.42
aF0.497
aa(lp649
I649
aF17.13
aF0.481
aa(lp650
I650
aF17.43
aF0.478
aa(lp651
I651
aF18.14
aF0.473
aa(lp652
I652
aF18.44
aF0.473
aa(lp653
I653
aF19.15
aF0.466
aa(lp654
I654
aF19.45
aF0.466
aa(lp655
I655
aF20.16
aF0.464
aa(lp656
I656
aF20.47
aF0.458
aa(lp657
I657
aF21.17
aF0.45
aa(lp658
I658
aF21.48
aF0.446
aa(lp659
I659
aF22.18
aF0.439
aa(lp660
I660
aF22.49
aF0.442
aa(lp661
I661
aF23.19
aF0.438
aa(lp662
I662
aF23.5
aF0.432
aa(lp663
I663
aF0.2
aF0.427
aa(lp664
I664
aF0.51
aF0.422
aa(lp665
I665
aF1.21
aF0.416
aa(lp666
I666
aF1.52
aF0.416
aa(lp667
I667
aF2.22
aF0.412
aa(lp668
I668
aF2.53
aF0.407
aa(lp669
I669
aF3.23
aF0.401
aa(lp670
I670
aF3.54
aF0.395
aa(lp671
I671
aF4.24
aF0.388
aa(lp672
I672
aF4.55
aF0.389
aa(lp673
I673
aF5.26
aF0.38
aa(lp674
I674
aF5.56
aF0.372
aa(lp675
I675
aF6.27
aF0.374
aa(lp676
I676
aF6.57
aF0.371
aa(lp677
I677
aF7.28
aF0.368
aa(lp678
I678
aF7.58
aF0.365
aa(lp679
I679
aF8.29
aF0.363
aa(lp680
I680
aF8.59
aF0.357
aa(lp681
I681
aF9.3
aF0.356
aa(lp682
I682
aF10.0
aF0.356
aa(lp683
I683
aF10.31
aF0.353
aa(lp684
I684
aF11.01
aF0.406
aa(lp685
I685
aF11.32
aF0.438
aa(lp686
I686
aF12.02
aF0.451
aa(lp687
I687
aF12.33
aF0.456
aa(lp688
I688
aF13.03
aF0.46
aa(lp689
I689
aF13.34
aF0.461
aa(lp690
I690
aF14.05
aF0.46
aa(lp691
I691
aF14.35
aF0.457
aa(lp692
I692
aF15.06
aF0.454
aa(lp693
I693
aF15.36
aF0.453
aa(lp694
I694
aF16.07
aF0.449
aa(lp695
I695
aF16.37
aF0.445
aa(lp696
I696
aF17.08
aF0.44
aa(lp697
I697
aF17.38
aF0.438
aa(lp698
I698
aF18.09
aF0.432
aa(lp699
I699
aF18.39
aF0.429
aa(lp700
I700
aF19.1
aF0.423
aa(lp701
I701
aF19.4
aF0.416
aa(lp702
I702
aF20.11
aF0.414
aa(lp703
I703
aF20.41
aF0.411
aa(lp704
I704
aF21.12
aF0.406
aa(lp705
I705
aF21.42
aF0.399
aa(lp706
I706
aF22.13
aF0.404
aa(lp707
I707
aF22.44
aF0.448
aa(lp708
I708
aF23.14
aF0.453
aa(lp709
I709
aF23.45
aF0.444
aa(lp710
I710
aF0.15
aF0.431
aa(lp711
I711
aF0.46
aF0.428
aa(lp712
I712
aF1.16
aF0.424
aa(lp713
I713
aF1.47
aF0.427
aa(lp714
I714
aF2.17
aF0.426
aa(lp715
I715
aF2.48
aF0.426
aa(lp716
I716
aF3.18
aF0.423
aa(lp717
I717
aF3.49
aF0.418
aa(lp718
I718
aF4.19
aF0.414
aa(lp719
I719
aF4.5
aF0.409
aa(lp720
I720
aF5.2
aF0.41
aa(lp721
I721
aF5.51
aF0.409
aa(lp722
I722
aF6.21
aF0.402
aa(lp723
I723
aF6.52
aF0.404
aa(lp724
I724
aF7.23
aF0.403
aa(lp725
I725
aF7.53
aF0.404
aa(lp726
I726
aF8.24
aF0.402
aa(lp727
I727
aF8.54
aF0.399
aa(lp728
I728
aF9.25
aF0.396
aa(lp729
I729
aF9.55
aF0.394
aa(lp730
I730
aF10.26
aF0.391
aa(lp731
I731
aF10.56
aF0.388
aa(lp732
I732
aF11.27
aF0.385
aa(lp733
I733
aF11.57
aF0.38
aa(lp734
I734
aF12.28
aF0.375
aa(lp735
I735
aF12.58
aF0.375
aa(lp736
I736
aF13.29
aF0.369
aa(lp737
I737
aF13.59
aF0.366
aa(lp738
I738
aF14.3
aF0.364
aa(lp739
I739
aF15.0
aF0.359
aa(lp740
I740
aF15.31
aF0.352
aa(lp741
I741
aF16.02
aF0.345
aa(lp742
I742
aF16.32
aF0.343
aa(lp743
I743
aF17.03
aF0.337
aa(lp744
I744
aF17.33
aF0.321
aa(lp745
I745
aF18.04
aF0.317
aa(lp746
I746
aF18.34
aF0.316
aa(lp747
I747
aF19.05
aF0.318
aa(lp748
I748
aF19.35
aF0.316
aa(lp749
I749
aF20.06
aF0.315
aa(lp750
I750
aF20.36
aF0.309
aa(lp751
I751
aF21.07
aF0.307
aa(lp752
I752
aF21.37
aF0.295
aa(lp753
I753
aF22.08
aF0.286
aa(lp754
I754
aF22.38
aF0.282
aa(lp755
I755
aF23.09
aF0.286
aa(lp756
I756
aF23.39
aF0.288
aa(lp757
I757
aF0.1
aF0.286
aa(lp758
I758
aF0.41
aF0.286
aa(lp759
I759
aF1.11
aF0.282
aa(lp760
I760
aF1.42
aF0.275
aa(lp761
I761
aF2.12
aF0.27
aa(lp762
I762
aF2.43
aF0.266
aa(lp763
I763
aF3.13
aF0.266
aa(lp764
I764
aF3.44
aF0.261
aa(lp765
I765
aF4.14
aF0.253
aa(lp766
I766
aF4.45
aF0.25
aa(lp767
I767
aF5.15
aF0.255
aa(lp768
I768
aF5.46
aF0.248
aa(lp769
I769
aF6.16
aF0.245
aa(lp770
I770
aF6.47
aF0.243
aa(lp771
I771
aF7.17
aF0.238
aa(lp772
I772
aF7.48
aF0.236
aa(lp773
I773
aF8.18
aF0.235
aa(lp774
I774
aF8.49
aF0.229
aa(lp775
I775
aF9.2
aF0.225
aa(lp776
I776
aF9.5
aF0.225
aa(lp777
I777
aF10.21
aF0.225
aa(lp778
I778
aF10.51
aF0.229
aa(lp779
I779
aF11.22
aF0.232
aa(lp780
I780
aF11.52
aF0.234
aa(lp781
I781
aF12.23
aF0.234
aa(lp782
I782
aF12.53
aF0.229
aa(lp783
I783
aF13.24
aF0.223
aa(lp784
I784
aF13.54
aF0.221
aa(lp785
I785
aF14.25
aF0.222
aa(lp786
I786
aF14.55
aF0.222
aa(lp787
I787
aF15.26
aF0.216
aa(lp788
I788
aF15.56
aF0.21
aa(lp789
I789
aF16.27
aF0.202
aa(lp790
I790
aF16.57
aF0.2
aa(lp791
I791
aF17.28
aF0.198
aa(lp792
I792
aF17.59
aF0.193
aa(lp793
I793
aF18.29
aF0.19
aa(lp794
I794
aF19.0
aF0.185
aa(lp795
I795
aF19.3
aF0.185
aa(lp796
I796
aF20.01
aF0.185
aa(lp797
I797
aF20.31
aF0.18
aa(lp798
I798
aF21.02
aF0.18
aa(lp799
I799
aF21.32
aF0.176
aa(lp800
I800
aF22.03
aF0.172
aa(lp801
I801
aF22.33
aF0.17
aa(lp802
I802
aF23.04
aF0.17
aa(lp803
I803
aF23.34
aF0.169
aa(lp804
I804
aF0.05
aF0.166
aa(lp805
I805
aF0.35
aF0.167
aa(lp806
I806
aF1.06
aF0.163
aa(lp807
I807
aF1.36
aF0.161
aa(lp808
I808
aF2.07
aF0.157
aa(lp809
I809
aF2.38
aF0.156
aa(lp810
I810
aF3.08
aF0.154
aa(lp811
I811
aF3.39
aF0.15
aa(lp812
I812
aF4.09
aF0.148
aa(lp813
I813
aF4.4
aF0.144
aa(lp814
I814
aF5.1
aF0.142
aa(lp815
I815
aF5.41
aF0.139
aa(lp816
I816
aF6.11
aF0.137
aa(lp817
I817
aF6.42
aF0.135
aa(lp818
I818
aF7.12
aF0.131
aa(lp819
I819
aF7.43
aF0.13
aa(lp820
I820
aF8.13
aF0.126
aa(lp821
I821
aF8.44
aF0.124
aa(lp822
I822
aF9.14
aF0.122
aa(lp823
I823
aF9.45
aF0.12
aa(lp824
I824
aF10.15
aF0.116
aa(lp825
I825
aF10.46
aF0.115
aa(lp826
I826
aF11.17
aF0.113
aa(lp827
I827
aF11.47
aF0.11
aa(lp828
I828
aF12.18
aF0.109
aa(lp829
I829
aF12.48
aF0.108
aa(lp830
I830
aF13.19
aF0.105
aa(lp831
I831
aF13.49
aF0.101
aa(lp832
I832
aF14.2
aF0.096
aa(lp833
I833
aF14.5
aF0.09
aa(lp834
I834
aF15.21
aF0.084
aa(lp835
I835
aF15.51
aF0.078
aa(lp836
I836
aF16.22
aF0.07
aa(lp837
I837
aF16.52
aF0.064
aa(lp838
I838
aF17.23
aF0.058
aa(lp839
I839
aF17.53
aF0.051
aa(lp840
I840
aF18.24
aF0.05
aa(lp841
I841
aF18.54
aF0.045
aa(lp842
I842
aF19.25
aF0.043
aa(lp843
I843
aF19.56
aF0.039
aa(lp844
I844
aF20.26
aF0.036
aa(lp845
I845
aF20.57
aF0.036
aa(lp846
I846
aF21.27
aF0.036
aa(lp847
I847
aF21.58
aF0.04
aa(lp848
I848
aF22.28
aF0.043
aa(lp849
I849
aF22.59
aF0.046
aa(lp850
I850
aF23.29
aF0.05
aa(lp851
I851
aF0.0
aF0.05
aa(lp852
I852
aF0.3
aF0.051
aa(lp853
I853
aF1.01
aF0.05
aa(lp854
I854
aF1.31
aF0.051
aa(lp855
I855
aF2.02
aF0.05
aa(lp856
I856
aF2.32
aF0.05
aa(lp857
I857
aF3.03
aF0.05
aa(lp858
I858
aF3.33
aF0.05
aa(lp859
I859
aF4.04
aF0.049
aa(lp860
I860
aF4.35
aF0.046
aa(lp861
I861
aF5.05
aF0.046
aa(lp862
I862
aF5.36
aF0.044
aa(lp863
I863
aF6.06
aF0.043
aa(lp864
I864
aF6.37
aF0.043
aa(lp865
I865
aF7.07
aF0.043
aa(lp866
I866
aF7.38
aF0.044
aa(lp867
I867
aF8.08
aF0.043
aa(lp868
I868
aF8.39
aF0.044
aa(lp869
I869
aF9.09
aF0.048
aa(lp870
I870
aF9.4
aF0.074
aa(lp871
I871
aF10.1
aF0.079
aa(lp872
I872
aF10.41
aF0.085
aa(lp873
I873
aF11.11
aF0.085
aa(lp874
I874
aF11.42
aF0.091
aa(lp875
I875
aF12.12
aF0.095
aa(lp876
I876
aF12.43
aF0.097
aa(lp877
I877
aF13.14
aF0.097
aa(lp878
I878
aF13.44
aF0.093
aa(lp879
I879
aF14.15
aF0.091
aa(lp880
I880
aF14.45
aF0.09
aa(lp881
I881
aF15.16
aF0.088
aa(lp882
I882
aF15.46
aF0.085
aa(lp883
I883
aF16.17
aF0.08
aa(lp884
I884
aF16.47
aF0.077
aa(lp885
I885
aF17.18
aF0.072
aa(lp886
I886
aF17.48
aF0.074
aa(lp887
I887
aF18.19
aF0.068
aa(lp888
I888
aF18.49
aF0.071
aa(lp889
I889
aF19.2
aF0.072
aa(lp890
I890
aF19.5
aF0.072
aa(lp891
I891
aF20.21
aF0.076
aa(lp892
I892
aF20.51
aF0.075
aa(lp893
I893
aF21.22
aF0.081
aa(lp894
I894
aF21.53
aF0.379
aa(lp895
I895
aF22.23
aF0.56
aa(lp896
I896
aF22.54
aF0.535
aa(lp897
I897
aF23.24
aF0.512
aa(lp898
I898
aF23.55
aF0.491
aa(lp899
I899
aF0.25
aF0.473
aa(lp900
I900
aF0.56
aF0.459
aa(lp901
I901
aF1.26
aF0.444
aa(lp902
I902
aF1.57
aF0.432
aa(lp903
I903
aF2.27
aF0.423
aa(lp904
I904
aF2.58
aF0.413
aa(lp905
I905
aF3.28
aF0.405
aa(lp906
I906
aF3.59
aF0.398
aa(lp907
I907
aF4.29
aF0.387
aa(lp908
I908
aF5.0
aF0.379
aa(lp909
I909
aF5.3
aF0.372
aa(lp910
I910
aF6.01
aF0.366
aa(lp911
I911
aF6.32
aF0.357
aa(lp912
I912
aF7.02
aF0.352
aa(lp913
I913
aF7.33
aF0.347
aa(lp914
I914
aF8.03
aF0.343
aa(lp915
I915
aF8.34
aF0.338
aa(lp916
I916
aF9.04
aF0.332
aa(lp917
I917
aF9.35
aF0.327
aa(lp918
I918
aF10.05
aF0.322
aa(lp919
I919
aF10.36
aF0.317
aa(lp920
I920
aF11.06
aF0.315
aa(lp921
I921
aF11.37
aF0.309
aa(lp922
I922
aF12.07
aF0.307
aa(lp923
I923
aF12.38
aF0.297
aa(lp924
I924
aF13.08
aF0.292
aa(lp925
I925
aF13.39
aF0.287
aa(lp926
I926
aF14.09
aF0.28
aa(lp927
I927
aF14.4
aF0.278
aa(lp928
I928
aF15.11
aF0.271
aa(lp929
I929
aF15.41
aF0.265
aa(lp930
I930
aF16.12
aF0.257
aa(lp931
I931
aF16.42
aF0.252
aa(lp932
I932
aF17.13
aF0.244
aa(lp933
I933
aF17.43
aF0.237
aa(lp934
I934
aF18.14
aF0.233
aa(lp935
I935
aF18.44
aF0.226
aa(lp936
I936
aF19.15
aF0.222
aa(lp937
I937
aF19.45
aF0.216
aa(lp938
I938
aF20.16
aF0.209
aa(lp939
I939
aF20.46
aF0.202
aa(lp940
I940
aF21.17
aF0.194
aa(lp941
I941
aF21.47
aF0.189
aa(lp942
I942
aF22.18
aF0.183
aa(lp943
I943
aF22.48
aF0.178
aa(lp944
I944
aF23.19
aF0.174
aa(lp945
I945
aF23.5
aF0.173
aa(lp946
I946
aF0.2
aF0.167
aa(lp947
I947
aF0.51
aF0.164
aa(lp948
I948
aF1.21
aF0.161
aa(lp949
I949
aF1.52
aF0.158
aa(lp950
I950
aF2.22
aF0.156
aa(lp951
I951
aF2.53
aF0.149
aa(lp952
I952
aF3.23
aF0.145
aa(lp953
I953
aF3.54
aF0.142
aa(lp954
I954
aF4.24
aF0.139
aa(lp955
I955
aF4.55
aF0.136
aa(lp956
I956
aF5.25
aF0.135
aa(lp957
I957
aF5.56
aF0.131
aa(lp958
I958
aF6.26
aF0.126
aa(lp959
I959
aF6.57
aF0.124
aa(lp960
I960
aF7.27
aF0.121
aa(lp961
I961
aF7.58
aF0.116
aa(lp962
I962
aF8.29
aF0.115
aa(lp963
I963
aF8.59
aF0.112
aa(lp964
I964
aF9.3
aF0.109
aa(lp965
I965
aF10.0
aF0.107
aa(lp966
I966
aF10.31
aF0.104
aa(lp967
I967
aF11.01
aF0.1
aa(lp968
I968
aF11.32
aF0.096
aa(lp969
I969
aF12.02
aF0.092
aa(lp970
I970
aF12.33
aF0.086
aa(lp971
I971
aF13.03
aF0.086
aa(lp972
I972
aF13.34
aF0.081
aa(lp973
I973
aF14.04
aF0.078
aa(lp974
I974
aF14.35
aF0.071
aa(lp975
I975
aF15.05
aF0.067
aa(lp976
I976
aF15.36
aF0.064
aa(lp977
I977
aF16.06
aF0.064
aa(lp978
I978
aF16.37
aF0.059
aa(lp979
I979
aF17.08
aF0.058
aa(lp980
I980
aF17.38
aF0.057
aa(lp981
I981
aF18.09
aF0.052
aa(lp982
I982
aF18.39
aF0.051
aa(lp983
I983
aF19.1
aF0.05
aa(lp984
I984
aF19.4
aF0.05
aa(lp985
I985
aF20.11
aF0.047
aa(lp986
I986
aF20.41
aF0.044
aa(lp987
I987
aF21.12
aF0.043
aa(lp988
I988
aF21.42
aF0.043
aa(lp989
I989
aF22.13
aF0.043
aa(lp990
I990
aF22.43
aF0.039
aa(lp991
I991
aF23.14
aF0.036
aa(lp992
I992
aF23.44
aF0.036
aa(lp993
I993
aF0.15
aF0.032
aa(lp994
I994
aF0.45
aF0.029
aa(lp995
I995
aF1.16
aF0.028
aa(lp996
I996
aF1.47
aF0.022
aa(lp997
I997
aF2.17
aF0.022
aa(lp998
I998
aF2.48
aF0.021
aa(lp999
I999
aF3.18
aF0.02
aa(lp1000
I1000
aF3.49
aF0.016
aa(lp1001
I1001
aF4.19
aF0.015
aa(lp1002
I1002
aF4.5
aF0.014
aa(lp1003
I1003
aF5.2
aF0.015
aa(lp1004
I1004
aF5.51
aF0.016
aa(lp1005
I1005
aF6.21
aF0.014
aa(lp1006
I1006
aF6.52
aF0.014
aa(lp1007
I1007
aF7.22
aF0.015
aa(lp1008
I1008
aF7.53
aF0.014
aa(lp1009
I1009
aF8.23
aF0.013
aa(lp1010
I1010
aF8.54
aF0.012
aa(lp1011
I1011
aF9.24
aF0.009
aa(lp1012
I1012
aF9.55
aF0.008
aa(lp1013
I1013
aF10.26
aF0.007
aa(lp1014
I1014
aF10.56
aF0.007
aa(lp1015
I1015
aF11.27
aF0.008
aa(lp1016
I1016
aF11.57
aF0.008
aa(lp1017
I1017
aF12.28
aF0.007
aa(lp1018
I1018
aF12.58
aF0.007
aa(lp1019
I1019
aF13.29
aF0.007
aa(lp1020
I1020
aF13.59
aF0.007
aa(lp1021
I1021
aF14.3
aF0.007
aa(lp1022
I1022
aF15.0
aF0.007
aa(lp1023
I1023
aF15.31
aF0.002
aa(lp1024
I1024
aF16.01
aF0.001
aa(lp1025
I1025
aF16.32
aF0.0
aa(lp1026
I1026
aF17.02
aF0.0
aa(lp1027
I1027
aF17.33
aF0.001
aa(lp1028
I1028
aF18.03
aF0.0
aa(lp1029
I1029
aF18.34
aF0.0
aa(lp1030
I1030
aF19.05
aF0.0
aa(lp1031
I1031
aF19.35
aF0.0
aa(lp1032
I1032
aF20.06
aF0.0
aa(lp1033
I1033
aF20.36
aF0.0
aa(lp1034
I1034
aF21.07
aF0.0
aa(lp1035
I1035
aF21.37
aF0.0
aa(lp1036
I1036
aF22.08
aF0.0
aa(lp1037
I1037
aF22.38
aF0.003
aa(lp1038
I1038
aF23.09
aF0.006
aa(lp1039
I1039
aF23.39
aF0.003
aa(lp1040
I1040
aF0.1
aF0.001
aa(lp1041
I1041
aF0.4
aF0.0
aa(lp1042
I1042
aF1.11
aF0.001
aa(lp1043
I1043
aF1.41
aF0.001
aa(lp1044
I1044
aF2.12
aF0.004
aa(lp1045
I1045
aF2.42
aF0.007
aa(lp1046
I1046
aF3.13
aF0.006
aa(lp1047
I1047
aF3.44
aF0.005
aa(lp1048
I1048
aF4.14
aF0.001
aa(lp1049
I1049
aF4.45
aF0.0
aa(lp1050
I1050
aF5.15
aF0.0
aa(lp1051
I1051
aF5.46
aF0.001
aa(lp1052
I1052
aF6.16
aF0.0
aa(lp1053
I1053
aF6.47
aF0.0
aa(lp1054
I1054
aF7.17
aF0.0
aa(lp1055
I1055
aF7.48
aF0.001
aa(lp1056
I1056
aF8.18
aF0.0
aa(lp1057
I1057
aF8.49
aF0.0
aa(lp1058
I1058
aF9.19
aF0.0
aa(lp1059
I1059
aF9.5
aF0.0
aa(lp1060
I1060
aF10.2
aF0.0
aa(lp1061
I1061
aF10.51
aF0.0
aa(lp1062
I1062
aF11.21
aF0.0
aa(lp1063
I1063
aF11.52
aF0.0
aa(lp1064
I1064
aF12.23
aF0.0
aa(lp1065
I1065
aF12.53
aF0.001
aa(lp1066
I1066
aF13.24
aF0.0
aa(lp1067
I1067
aF13.54
aF0.0
aa(lp1068
I1068
aF14.25
aF0.0
aa(lp1069
I1069
aF14.55
aF0.0
aa(lp1070
I1070
aF15.26
aF0.0
aa(lp1071
I1071
aF15.56
aF0.001
aa(lp1072
I1072
aF16.27
aF0.0
aa(lp1073
I1073
aF16.57
aF0.0
aa(lp1074
I1074
aF17.28
aF0.0
aa(lp1075
I1075
aF17.58
aF0.0
aa(lp1076
I1076
aF18.29
aF0.0
aa(lp1077
I1077
aF18.59
aF0.0
aa(lp1078
I1078
aF19.3
aF0.0
aa(lp1079
I1079
aF20.0
aF0.0
aa(lp1080
I1080
aF20.31
aF0.0
aa(lp1081
I1081
aF21.02
aF0.0
aa(lp1082
I1082
aF21.32
aF0.0
aa(lp1083
I1083
aF22.03
aF0.0
aa(lp1084
I1084
aF22.33
aF0.0
aa(lp1085
I1085
aF23.04
aF0.0
aa(lp1086
I1086
aF23.34
aF0.0
aa(lp1087
I1087
aF0.05
aF0.0
aa(lp1088
I1088
aF0.35
aF0.0
aa(lp1089
I1089
aF1.06
aF0.0
aa(lp1090
I1090
aF1.36
aF0.0
aa(lp1091
I1091
aF2.07
aF0.0
aa(lp1092
I1092
aF2.37
aF0.0
aa(lp1093
I1093
aF3.08
aF0.0
aa(lp1094
I1094
aF3.38
aF0.0
aa(lp1095
I1095
aF4.09
aF0.0
aa(lp1096
I1096
aF4.39
aF0.0
aa(lp1097
I1097
aF5.1
aF0.0
aa(lp1098
I1098
aF5.41
aF0.0
aa(lp1099
I1099
aF6.11
aF0.0
aa(lp1100
I1100
aF6.42
aF0.0
aa(lp1101
I1101
aF7.12
aF0.0
aa(lp1102
I1102
aF7.43
aF0.0
aa(lp1103
I1103
aF8.13
aF0.0
aa(lp1104
I1104
aF8.44
aF0.0
aa(lp1105
I1105
aF9.14
aF0.0
aa(lp1106
I1106
aF9.45
aF0.0
aa(lp1107
I1107
aF10.15
aF0.0
aa(lp1108
I1108
aF10.46
aF0.0
aa(lp1109
I1109
aF11.16
aF0.0
aa(lp1110
I1110
aF11.47
aF0.0
aa(lp1111
I1111
aF12.17
aF0.0
aa(lp1112
I1112
aF12.48
aF0.0
aa(lp1113
I1113
aF13.18
aF0.0
aa(lp1114
I1114
aF13.49
aF0.0
aa(lp1115
I1115
aF14.2
aF0.0
aa(lp1116
I1116
aF14.5
aF0.0
aa(lp1117
I1117
aF15.21
aF0.0
aa(lp1118
I1118
aF15.51
aF0.0
aa(lp1119
I1119
aF16.22
aF0.0
aa(lp1120
I1120
aF16.52
aF0.0
aa(lp1121
I1121
aF17.23
aF0.0
aa(lp1122
I1122
aF17.53
aF0.0
aa(lp1123
I1123
aF18.24
aF0.0
aa(lp1124
I1124
aF18.54
aF0.0
aa(lp1125
I1125
aF19.25
aF0.0
aa(lp1126
I1126
aF19.55
aF0.0
aa(lp1127
I1127
aF20.26
aF0.0
aa(lp1128
I1128
aF20.56
aF0.0
aa(lp1129
I1129
aF21.27
aF0.0
aa(lp1130
I1130
aF21.57
aF0.0
aa(lp1131
I1131
aF22.28
aF0.0
aa(lp1132
I1132
aF22.59
aF0.0
aa(lp1133
I1133
aF23.29
aF0.0
aa(lp1134
I1134
aF0.0
aF0.0
aa(lp1135
I1135
aF0.3
aF0.0
aa(lp1136
I1136
aF1.01
aF0.0
aa(lp1137
I1137
aF1.31
aF0.0
aa(lp1138
I1138
aF2.02
aF0.0
aa(lp1139
I1139
aF2.32
aF0.0
aa(lp1140
I1140
aF3.03
aF0.0
aa(lp1141
I1141
aF3.33
aF0.0
aa(lp1142
I1142
aF4.04
aF0.0
aa(lp1143
I1143
aF4.34
aF0.0
aa(lp1144
I1144
aF5.05
aF0.0
aa(lp1145
I1145
aF5.35
aF0.0
aa(lp1146
I1146
aF6.06
aF0.0
aa(lp1147
I1147
aF6.36
aF0.0
aa(lp1148
I1148
aF7.07
aF0.0
aa(lp1149
I1149
aF7.38
aF0.0
aa(lp1150
I1150
aF8.08
aF0.0
aa(lp1151
I1151
aF8.39
aF0.0
aa(lp1152
I1152
aF9.09
aF0.0
aa(lp1153
I1153
aF9.4
aF0.315
aa(lp1154
I1154
aF10.1
aF0.353
aa(lp1155
I1155
aF10.41
aF0.332
aa(lp1156
I1156
aF11.11
aF0.327
aa(lp1157
I1157
aF11.42
aF0.314
aa(lp1158
I1158
aF12.12
aF0.285
aa(lp1159
I1159
aF12.43
aF0.263
aa(lp1160
I1160
aF13.13
aF0.248
aa(lp1161
I1161
aF13.44
aF0.237
aa(lp1162
I1162
aF14.14
aF0.226
aa(lp1163
I1163
aF14.45
aF0.216
aa(lp1164
I1164
aF15.16
aF0.204
aa(lp1165
I1165
aF15.46
aF0.199
aa(lp1166
I1166
aF16.17
aF0.193
aa(lp1167
I1167
aF16.47
aF0.183
aa(lp1168
I1168
aF17.18
aF0.178
aa(lp1169
I1169
aF17.48
aF0.173
aa(lp1170
I1170
aF18.19
aF0.171
aa(lp1171
I1171
aF18.49
aF0.168
aa(lp1172
I1172
aF19.2
aF0.165
aa(lp1173
I1173
aF19.5
aF0.165
aa(lp1174
I1174
aF20.21
aF0.163
aa(lp1175
I1175
aF20.51
aF0.161
aa(lp1176
I1176
aF21.22
aF0.16
aa(lp1177
I1177
aF21.52
aF0.159
aa(lp1178
I1178
aF22.23
aF0.156
aa(lp1179
I1179
aF22.53
aF0.156
aa(lp1180
I1180
aF23.24
aF0.152
aa(lp1181
I1181
aF23.55
aF0.15
aa(lp1182
I1182
aF0.25
aF0.145
aa(lp1183
I1183
aF0.56
aF0.142
aa(lp1184
I1184
aF1.26
aF0.138
aa(lp1185
I1185
aF1.57
aF0.136
aa(lp1186
I1186
aF2.27
aF0.131
aa(lp1187
I1187
aF2.58
aF0.125
aa(lp1188
I1188
aF3.28
aF0.121
aa(lp1189
I1189
aF3.59
aF0.119
aa(lp1190
I1190
aF4.29
aF0.115
aa(lp1191
I1191
aF5.0
aF0.108
aa(lp1192
I1192
aF5.3
aF0.107
aa(lp1193
I1193
aF6.01
aF0.102
aa(lp1194
I1194
aF6.31
aF0.097
aa(lp1195
I1195
aF7.02
aF0.091
aa(lp1196
I1196
aF7.32
aF0.086
aa(lp1197
I1197
aF8.03
aF0.081
aa(lp1198
I1198
aF8.34
aF0.073
aa(lp1199
I1199
aF9.04
aF0.068
aa(lp1200
I1200
aF9.35
aF0.064
aa(lp1201
I1201
aF10.05
aF0.061
aa(lp1202
I1202
aF10.36
aF0.058
aa(lp1203
I1203
aF11.06
aF0.053
aa(lp1204
I1204
aF11.37
aF0.05
aa(lp1205
I1205
aF12.07
aF0.049
aa(lp1206
I1206
aF12.38
aF0.043
aa(lp1207
I1207
aF13.08
aF0.04
aa(lp1208
I1208
aF13.39
aF0.036
aa(lp1209
I1209
aF14.09
aF0.029
aa(lp1210
I1210
aF14.4
aF0.029
aa(lp1211
I1211
aF15.1
aF0.022
aa(lp1212
I1212
aF15.41
aF0.022
aa(lp1213
I1213
aF16.11
aF0.019
aa(lp1214
I1214
aF16.42
aF0.014
aa(lp1215
I1215
aF17.13
aF0.014
aa(lp1216
I1216
aF17.43
aF0.014
aa(lp1217
I1217
aF18.14
aF0.011
aa(lp1218
I1218
aF18.44
aF0.007
aa(lp1219
I1219
aF19.15
aF0.007
aa(lp1220
I1220
aF19.45
aF0.008
aa(lp1221
I1221
aF20.16
aF0.007
aa(lp1222
I1222
aF20.46
aF0.007
aa(lp1223
I1223
aF21.17
aF0.007
aa(lp1224
I1224
aF21.47
aF0.007
aa(lp1225
I1225
aF22.18
aF0.007
aa(lp1226
I1226
aF22.48
aF0.007
aa(lp1227
I1227
aF23.19
aF0.007
aa(lp1228
I1228
aF23.49
aF0.007
aa(lp1229
I1229
aF0.2
aF0.007
aa(lp1230
I1230
aF0.51
aF0.007
aa(lp1231
I1231
aF1.21
aF0.007
aa(lp1232
I1232
aF1.52
aF0.008
aa(lp1233
I1233
aF2.22
aF0.007
aa(lp1234
I1234
aF2.53
aF0.008
aa(lp1235
I1235
aF3.23
aF0.007
aa(lp1236
I1236
aF3.54
aF0.007
aa(lp1237
I1237
aF4.24
aF0.007
aa(lp1238
I1238
aF4.55
aF0.007
aa(lp1239
I1239
aF5.25
aF0.007
aa(lp1240
I1240
aF5.56
aF0.006
aa(lp1241
I1241
aF6.26
aF0.006
aa(lp1242
I1242
aF6.57
aF0.004
aa(lp1243
I1243
aF7.27
aF0.0
aa(lp1244
I1244
aF7.58
aF0.0
aa(lp1245
I1245
aF8.28
aF0.0
aa(lp1246
I1246
aF8.59
aF0.0
aa(lp1247
I1247
aF9.3
aF0.0
aa(lp1248
I1248
aF10.0
aF0.0
aa(lp1249
I1249
aF10.31
aF0.0
aa(lp1250
I1250
aF11.01
aF0.0
aa(lp1251
I1251
aF11.32
aF0.0
aa(lp1252
I1252
aF12.02
aF0.0
aa(lp1253
I1253
aF12.33
aF0.0
aa(lp1254
I1254
aF13.03
aF0.0
aa(lp1255
I1255
aF13.34
aF0.0
aa(lp1256
I1256
aF14.04
aF0.0
aa(lp1257
I1257
aF14.35
aF0.0
aa(lp1258
I1258
aF15.05
aF0.0
aa(lp1259
I1259
aF15.36
aF0.0
aa(lp1260
I1260
aF16.06
aF0.0
aa(lp1261
I1261
aF16.37
aF0.0
aa(lp1262
I1262
aF17.07
aF0.0
aa(lp1263
I1263
aF17.38
aF0.0
aa(lp1264
I1264
aF18.09
aF0.0
aa(lp1265
I1265
aF18.39
aF0.0
aa(lp1266
I1266
aF19.1
aF0.0
aa(lp1267
I1267
aF19.4
aF0.0
aa(lp1268
I1268
aF20.11
aF0.0
aa(lp1269
I1269
aF20.41
aF0.0
aa(lp1270
I1270
aF21.12
aF0.0
aa(lp1271
I1271
aF21.42
aF0.0
aa(lp1272
I1272
aF22.13
aF0.0
aa(lp1273
I1273
aF22.43
aF0.0
aa(lp1274
I1274
aF23.14
aF0.0
aa(lp1275
I1275
aF23.44
aF0.0
aa(lp1276
I1276
aF0.15
aF0.0
aa(lp1277
I1277
aF0.45
aF0.0
aa(lp1278
I1278
aF1.16
aF0.0
aa(lp1279
I1279
aF1.46
aF0.0
aa(lp1280
I1280
aF2.17
aF0.0
aa(lp1281
I1281
aF2.48
aF0.0
aa(lp1282
I1282
aF3.18
aF0.0
aa(lp1283
I1283
aF3.49
aF0.0
aa(lp1284
I1284
aF4.19
aF0.0
aa(lp1285
I1285
aF4.5
aF0.0
aa(lp1286
I1286
aF5.2
aF0.0
aa(lp1287
I1287
aF5.51
aF0.0
aa(lp1288
I1288
aF6.21
aF0.0
aa(lp1289
I1289
aF6.52
aF0.0
aa(lp1290
I1290
aF7.22
aF0.0
aa(lp1291
I1291
aF7.53
aF0.0
aa(lp1292
I1292
aF8.23
aF0.0
aa(lp1293
I1293
aF8.54
aF0.0
aa(lp1294
I1294
aF9.24
aF0.0
aa(lp1295
I1295
aF9.55
aF0.0
aa(lp1296
I1296
aF10.25
aF0.013
aa(lp1297
I1297
aF10.56
aF0.093
aa(lp1298
I1298
aF11.27
aF0.09
aa(lp1299
I1299
aF11.57
aF0.092
aa(lp1300
I1300
aF12.28
aF0.094
aa(lp1301
I1301
aF12.58
aF0.099
aa(lp1302
I1302
aF13.29
aF0.101
aa(lp1303
I1303
aF13.59
aF0.101
aa(lp1304
I1304
aF14.3
aF0.097
aa(lp1305
I1305
aF15.0
aF0.098
aa(lp1306
I1306
aF15.31
aF0.101
aa(lp1307
I1307
aF16.01
aF0.1
aa(lp1308
I1308
aF16.32
aF0.104
aa(lp1309
I1309
aF17.02
aF0.115
aa(lp1310
I1310
aF17.33
aF0.118
aa(lp1311
I1311
aF18.03
aF0.122
aa(lp1312
I1312
aF18.34
aF0.122
aa(lp1313
I1313
aF19.05
aF0.116
aa(lp1314
I1314
aF19.35
aF0.118
aa(lp1315
I1315
aF20.06
aF0.12
aa(lp1316
I1316
aF20.36
aF0.116
aa(lp1317
I1317
aF21.07
aF0.123
aa(lp1318
I1318
aF21.37
aF0.125
aa(lp1319
I1319
aF22.08
aF0.129
aa(lp1320
I1320
aF22.38
aF0.134
aa(lp1321
I1321
aF23.09
aF0.137
aa(lp1322
I1322
aF23.39
aF0.137
aa(lp1323
I1323
aF0.1
aF0.142
aa(lp1324
I1324
aF0.4
aF0.138
aa(lp1325
I1325
aF1.11
aF0.135
aa(lp1326
I1326
aF1.41
aF0.127
aa(lp1327
I1327
aF2.12
aF0.12
aa(lp1328
I1328
aF2.42
aF0.114
aa(lp1329
I1329
aF3.13
aF0.108
aa(lp1330
I1330
aF3.44
aF0.108
aa(lp1331
I1331
aF4.14
aF0.107
aa(lp1332
I1332
aF4.45
aF0.108
aa(lp1333
I1333
aF5.15
aF0.108
aa(lp1334
I1334
aF5.46
aF0.116
aa(lp1335
I1335
aF6.16
aF0.118
aa(lp1336
I1336
aF6.47
aF0.122
aa(lp1337
I1337
aF7.17
aF0.122
aa(lp1338
I1338
aF7.48
aF0.126
aa(lp1339
I1339
aF8.18
aF0.126
aa(lp1340
I1340
aF8.49
aF0.127
aa(lp1341
I1341
aF9.19
aF0.129
aa(lp1342
I1342
aF9.5
aF0.134
aa(lp1343
I1343
aF10.2
aF0.135
aa(lp1344
I1344
aF10.51
aF0.135
aa(lp1345
I1345
aF11.21
aF0.135
aa(lp1346
I1346
aF11.52
aF0.136
aa(lp1347
I1347
aF12.23
aF0.136
aa(lp1348
I1348
aF12.53
aF0.135
aa(lp1349
I1349
aF13.24
aF0.136
aa(lp1350
I1350
aF13.54
aF0.136
aa(lp1351
I1351
aF14.25
aF0.135
aa(lp1352
I1352
aF14.55
aF0.136
aa(lp1353
I1353
aF15.26
aF0.131
aa(lp1354
I1354
aF15.56
aF0.129
aa(lp1355
I1355
aF16.27
aF0.126
aa(lp1356
I1356
aF16.57
aF0.123
aa(lp1357
I1357
aF17.28
aF0.122
aa(lp1358
I1358
aF17.58
aF0.121
aa(lp1359
I1359
aF18.29
aF0.116
aa(lp1360
I1360
aF18.59
aF0.113
aa(lp1361
I1361
aF19.3
aF0.106
aa(lp1362
I1362
aF20.01
aF0.095
aa(lp1363
I1363
aF20.31
aF0.086
aa(lp1364
I1364
aF21.02
aF0.084
aa(lp1365
I1365
aF21.32
aF0.076
aa(lp1366
I1366
aF22.03
aF0.069
aa(lp1367
I1367
aF22.33
aF0.065
aa(lp1368
I1368
aF23.04
aF0.059
aa(lp1369
I1369
aF23.34
aF0.053
aa(lp1370
I1370
aF0.05
aF0.05
aa(lp1371
I1371
aF0.35
aF0.05
aa(lp1372
I1372
aF1.06
aF0.045
aa(lp1373
I1373
aF1.36
aF0.044
aa(lp1374
I1374
aF2.07
aF0.043
aa(lp1375
I1375
aF2.37
aF0.042
aa(lp1376
I1376
aF3.08
aF0.039
aa(lp1377
I1377
aF3.38
aF0.036
aa(lp1378
I1378
aF4.09
aF0.035
aa(lp1379
I1379
aF4.4
aF0.031
aa(lp1380
I1380
aF5.1
aF0.029
aa(lp1381
I1381
aF5.41
aF0.029
aa(lp1382
I1382
aF6.11
aF0.028
aa(lp1383
I1383
aF6.42
aF0.025
aa(lp1384
I1384
aF7.12
aF0.022
aa(lp1385
I1385
aF7.43
aF0.022
aa(lp1386
I1386
aF8.13
aF0.023
aa(lp1387
I1387
aF8.44
aF0.022
aa(lp1388
I1388
aF9.14
aF0.022
aa(lp1389
I1389
aF9.45
aF0.022
aa(lp1390
I1390
aF10.15
aF0.021
aa(lp1391
I1391
aF10.46
aF0.022
aa(lp1392
I1392
aF11.16
aF0.022
aa(lp1393
I1393
aF11.47
aF0.022
aa(lp1394
I1394
aF12.17
aF0.02
aa(lp1395
I1395
aF12.48
aF0.015
aa(lp1396
I1396
aF13.19
aF0.014
aa(lp1397
I1397
aF13.49
aF0.014
aa(lp1398
I1398
aF14.2
aF0.014
aa(lp1399
I1399
aF14.5
aF0.012
aa(lp1400
I1400
aF15.21
aF0.008
aa(lp1401
I1401
aF15.51
aF0.007
aa(lp1402
I1402
aF16.22
aF0.008
aa(lp1403
I1403
aF16.52
aF0.007
aa(lp1404
I1404
aF17.23
aF0.004
aa(lp1405
I1405
aF17.53
aF0.0
aa(lp1406
I1406
aF18.24
aF0.0
aa(lp1407
I1407
aF18.54
aF0.0
aa(lp1408
I1408
aF19.25
aF0.0
aa(lp1409
I1409
aF19.55
aF0.0
aa(lp1410
I1410
aF20.26
aF0.0
aa(lp1411
I1411
aF20.56
aF0.0
aa(lp1412
I1412
aF21.27
aF0.0
aa(lp1413
I1413
aF21.58
aF0.0
aa(lp1414
I1414
aF22.28
aF0.0
aa(lp1415
I1415
aF22.59
aF0.0
aa(lp1416
I1416
aF23.29
aF0.0
aa(lp1417
I1417
aF0.0
aF0.0
aa(lp1418
I1418
aF0.3
aF0.0
aa(lp1419
I1419
aF1.01
aF0.0
aa(lp1420
I1420
aF1.31
aF0.0
aa(lp1421
I1421
aF2.02
aF0.001
aa(lp1422
I1422
aF2.32
aF0.0
aa(lp1423
I1423
aF3.03
aF0.0
aa(lp1424
I1424
aF3.33
aF0.0
aa(lp1425
I1425
aF4.04
aF0.0
aa(lp1426
I1426
aF4.34
aF0.0
aa(lp1427
I1427
aF5.05
aF0.001
aa(lp1428
I1428
aF5.35
aF0.0
aa(lp1429
I1429
aF6.06
aF0.0
aa(lp1430
I1430
aF6.37
aF0.001
aa(lp1431
I1431
aF7.07
aF0.001
aa(lp1432
I1432
aF7.38
aF0.0
aa(lp1433
I1433
aF8.08
aF0.0
aa(lp1434
I1434
aF8.39
aF0.0
aa(lp1435
I1435
aF9.09
aF0.0
aa(lp1436
I1436
aF9.4
aF0.0
aa(lp1437
I1437
aF10.1
aF0.0
aa(lp1438
I1438
aF10.41
aF0.0
aa(lp1439
I1439
aF11.11
aF0.0
aa(lp1440
I1440
aF11.42
aF0.0
aa(lp1441
I1441
aF12.12
aF0.0
aa(lp1442
I1442
aF12.43
aF0.0
aa(lp1443
I1443
aF13.13
aF0.0
aa(lp1444
I1444
aF13.44
aF0.0
aa(lp1445
I1445
aF14.14
aF0.0
aa(lp1446
I1446
aF14.45
aF0.0
aa(lp1447
I1447
aF15.16
aF0.0
aa(lp1448
I1448
aF15.46
aF0.0
aa(lp1449
I1449
aF16.17
aF0.0
aa(lp1450
I1450
aF16.47
aF0.0
aa(lp1451
I1451
aF17.18
aF0.0
aa(lp1452
I1452
aF17.48
aF0.0
aa(lp1453
I1453
aF18.19
aF0.0
aa(lp1454
I1454
aF18.49
aF0.0
aa(lp1455
I1455
aF19.2
aF0.0
aa(lp1456
I1456
aF19.5
aF0.0
aa(lp1457
I1457
aF20.21
aF0.0
aa(lp1458
I1458
aF20.51
aF0.0
aa(lp1459
I1459
aF21.22
aF0.0
aa(lp1460
I1460
aF21.52
aF0.0
aa(lp1461
I1461
aF22.23
aF0.0
aa(lp1462
I1462
aF22.54
aF0.0
aa(lp1463
I1463
aF23.24
aF0.0
aa(lp1464
I1464
aF23.55
aF0.0
aa(lp1465
I1465
aF0.25
aF0.0
aa(lp1466
I1466
aF0.56
aF0.0
aa(lp1467
I1467
aF1.26
aF0.0
aa(lp1468
I1468
aF1.57
aF0.0
aa(lp1469
I1469
aF2.27
aF0.0
aa(lp1470
I1470
aF2.58
aF0.0
aa(lp1471
I1471
aF3.28
aF0.0
aa(lp1472
I1472
aF3.59
aF0.0
aa(lp1473
I1473
aF4.29
aF0.0
aa(lp1474
I1474
aF5.0
aF0.0
aa(lp1475
I1475
aF5.3
aF0.0
aa(lp1476
I1476
aF6.01
aF0.0
aa(lp1477
I1477
aF6.31
aF0.0
aa(lp1478
I1478
aF7.02
aF0.0
aa(lp1479
I1479
aF7.33
aF0.0
aa(lp1480
I1480
aF8.03
aF0.0
aa(lp1481
I1481
aF8.34
aF0.0
aa(lp1482
I1482
aF9.04
aF0.0
aa(lp1483
I1483
aF9.35
aF0.0
aa(lp1484
I1484
aF10.05
aF0.0
aa(lp1485
I1485
aF10.36
aF0.0
aa(lp1486
I1486
aF11.06
aF0.0
aa(lp1487
I1487
aF11.37
aF0.0
aa(lp1488
I1488
aF12.07
aF0.0
aa(lp1489
I1489
aF12.38
aF0.0
aa(lp1490
I1490
aF13.08
aF0.0
aa(lp1491
I1491
aF13.39
aF0.0
aa(lp1492
I1492
aF14.09
aF0.0
aa(lp1493
I1493
aF14.4
aF0.0
aa(lp1494
I1494
aF15.1
aF0.0
aa(lp1495
I1495
aF15.41
aF0.0
aa(lp1496
I1496
aF16.12
aF0.0
aa(lp1497
I1497
aF16.42
aF0.0
aa(lp1498
I1498
aF17.13
aF0.0
aa(lp1499
I1499
aF17.43
aF0.0
aa(lp1500
I1500
aF18.14
aF0.0
aa(lp1501
I1501
aF18.44
aF0.0
aa(lp1502
I1502
aF19.15
aF0.0
aa(lp1503
I1503
aF19.45
aF0.0
aa(lp1504
I1504
aF20.16
aF0.0
aa(lp1505
I1505
aF20.46
aF0.0
aa(lp1506
I1506
aF21.17
aF0.0
aa(lp1507
I1507
aF21.47
aF0.0
aa(lp1508
I1508
aF22.18
aF0.0
aa(lp1509
I1509
aF22.48
aF0.0
aa(lp1510
I1510
aF23.19
aF0.0
aa(lp1511
I1511
aF23.5
aF0.0
aa(lp1512
I1512
aF0.2
aF0.0
aa(lp1513
I1513
aF0.51
aF0.0
aa(lp1514
I1514
aF1.21
aF0.0
aa(lp1515
I1515
aF1.52
aF0.107
aa(lp1516
I1516
aF2.22
aF0.301
aa(lp1517
I1517
aF2.53
aF0.293
aa(lp1518
I1518
aF3.23
aF0.284
aa(lp1519
I1519
aF3.54
aF0.281
aa(lp1520
I1520
aF4.24
aF0.278
aa(lp1521
I1521
aF4.55
aF0.272
aa(lp1522
I1522
aF5.25
aF0.267
aa(lp1523
I1523
aF5.56
aF0.27
aa(lp1524
I1524
aF6.26
aF0.273
aa(lp1525
I1525
aF6.57
aF0.266
aa(lp1526
I1526
aF7.27
aF0.254
aa(lp1527
I1527
aF7.58
aF0.245
aa(lp1528
I1528
aF8.29
aF0.237
aa(lp1529
I1529
aF8.59
aF0.235
aa(lp1530
I1530
aF9.3
aF0.232
aa(lp1531
I1531
aF10.0
aF0.23
aa(lp1532
I1532
aF10.31
aF0.231
aa(lp1533
I1533
aF11.01
aF0.225
aa(lp1534
I1534
aF11.32
aF0.222
aa(lp1535
I1535
aF12.02
aF0.22
aa(lp1536
I1536
aF12.33
aF0.216
aa(lp1537
I1537
aF13.03
aF0.214
aa(lp1538
I1538
aF13.34
aF0.21
aa(lp1539
I1539
aF14.04
aF0.205
aa(lp1540
I1540
aF14.35
aF0.202
aa(lp1541
I1541
aF15.05
aF0.2
aa(lp1542
I1542
aF15.36
aF0.194
aa(lp1543
I1543
aF16.06
aF0.189
aa(lp1544
I1544
aF16.37
aF0.186
aa(lp1545
I1545
aF17.08
aF0.185
aa(lp1546
I1546
aF17.38
aF0.189
aa(lp1547
I1547
aF18.09
aF0.184
aa(lp1548
I1548
aF18.39
aF0.184
aa(lp1549
I1549
aF19.1
aF0.18
aa(lp1550
I1550
aF19.4
aF0.178
aa(lp1551
I1551
aF20.11
aF0.18
aa(lp1552
I1552
aF20.41
aF0.18
aa(lp1553
I1553
aF21.12
aF0.176
aa(lp1554
I1554
aF21.42
aF0.173
aa(lp1555
I1555
aF22.13
aF0.17
aa(lp1556
I1556
aF22.43
aF0.169
aa(lp1557
I1557
aF23.14
aF0.166
aa(lp1558
I1558
aF23.44
aF0.171
aa(lp1559
I1559
aF0.15
aF0.171
aa(lp1560
I1560
aF0.45
aF0.173
aa(lp1561
I1561
aF1.16
aF0.171
aa(lp1562
I1562
aF1.47
aF0.171
aa(lp1563
I1563
aF2.17
aF0.168
aa(lp1564
I1564
aF2.48
aF0.166
aa(lp1565
I1565
aF3.18
aF0.167
aa(lp1566
I1566
aF3.49
aF0.167
aa(lp1567
I1567
aF4.19
aF0.166
aa(lp1568
I1568
aF4.5
aF0.167
aa(lp1569
I1569
aF5.2
aF0.166
aa(lp1570
I1570
aF5.51
aF0.167
aa(lp1571
I1571
aF6.21
aF0.167
aa(lp1572
I1572
aF6.52
aF0.166
aa(lp1573
I1573
aF7.22
aF0.166
aa(lp1574
I1574
aF7.53
aF0.166
aa(lp1575
I1575
aF8.23
aF0.165
aa(lp1576
I1576
aF8.54
aF0.164
aa(lp1577
I1577
aF9.24
aF0.163
aa(lp1578
I1578
aF9.55
aF0.161
aa(lp1579
I1579
aF10.26
aF0.164
aa(lp1580
I1580
aF10.56
aF0.162
aa(lp1581
I1581
aF11.27
aF0.163
aa(lp1582
I1582
aF11.57
aF0.162
aa(lp1583
I1583
aF12.28
aF0.16
aa(lp1584
I1584
aF12.58
aF0.16
aa(lp1585
I1585
aF13.29
aF0.16
aa(lp1586
I1586
aF13.59
aF0.159
aa(lp1587
I1587
aF14.3
aF0.159
aa(lp1588
I1588
aF15.0
aF0.159
aa(lp1589
I1589
aF15.31
aF0.16
aa(lp1590
I1590
aF16.01
aF0.157
aa(lp1591
I1591
aF16.32
aF0.16
aa(lp1592
I1592
aF17.02
aF0.162
aa(lp1593
I1593
aF17.33
aF0.161
aa(lp1594
I1594
aF18.04
aF0.163
aa(lp1595
I1595
aF18.34
aF0.162
aa(lp1596
I1596
aF19.05
aF0.162
aa(lp1597
I1597
aF19.35
aF0.16
aa(lp1598
I1598
aF20.06
aF0.159
aa(lp1599
I1599
aF20.36
aF0.159
aa(lp1600
I1600
aF21.07
aF0.159
aa(lp1601
I1601
aF21.37
aF0.159
aa(lp1602
I1602
aF22.08
aF0.159
aa(lp1603
I1603
aF22.38
aF0.162
aa(lp1604
I1604
aF23.09
aF0.16
aa(lp1605
I1605
aF23.39
aF0.159
aa(lp1606
I1606
aF0.1
aF0.157
aa(lp1607
I1607
aF0.4
aF0.155
aa(lp1608
I1608
aF1.11
aF0.155
aa(lp1609
I1609
aF1.41
aF0.152
aa(lp1610
I1610
aF2.12
aF0.15
aa(lp1611
I1611
aF2.43
aF0.152
aa(lp1612
I1612
aF3.13
aF0.154
aa(lp1613
I1613
aF3.44
aF0.157
aa(lp1614
I1614
aF4.14
aF0.157
aa(lp1615
I1615
aF4.45
aF0.158
aa(lp1616
I1616
aF5.15
aF0.158
aa(lp1617
I1617
aF5.46
aF0.157
aa(lp1618
I1618
aF6.16
aF0.157
aa(lp1619
I1619
aF6.47
aF0.157
aa(lp1620
I1620
aF7.17
aF0.156
aa(lp1621
I1621
aF7.48
aF0.153
aa(lp1622
I1622
aF8.18
aF0.154
aa(lp1623
I1623
aF8.49
aF0.151
aa(lp1624
I1624
aF9.19
aF0.15
aa(lp1625
I1625
aF9.5
aF0.15
aa(lp1626
I1626
aF10.2
aF0.15
aa(lp1627
I1627
aF10.51
aF0.149
aa(lp1628
I1628
aF11.22
aF0.148
aa(lp1629
I1629
aF11.52
aF0.144
aa(lp1630
I1630
aF12.23
aF0.144
aa(lp1631
I1631
aF12.53
aF0.142
aa(lp1632
I1632
aF13.24
aF0.141
aa(lp1633
I1633
aF13.54
aF0.136
aa(lp1634
I1634
aF14.25
aF0.136
aa(lp1635
I1635
aF14.55
aF0.135
aa(lp1636
I1636
aF15.26
aF0.131
aa(lp1637
I1637
aF15.56
aF0.131
aa(lp1638
I1638
aF16.27
aF0.128
aa(lp1639
I1639
aF16.57
aF0.129
aa(lp1640
I1640
aF17.28
aF0.127
aa(lp1641
I1641
aF17.58
aF0.124
aa(lp1642
I1642
aF18.29
aF0.125
aa(lp1643
I1643
aF18.59
aF0.123
aa(lp1644
I1644
aF19.3
aF0.121
aa(lp1645
I1645
aF20.01
aF0.119
aa(lp1646
I1646
aF20.31
aF0.116
aa(lp1647
I1647
aF21.02
aF0.115
aa(lp1648
I1648
aF21.32
aF0.113
aa(lp1649
I1649
aF22.03
aF0.114
aa(lp1650
I1650
aF22.33
aF0.114
aa(lp1651
I1651
aF23.04
aF0.113
aa(lp1652
I1652
aF23.34
aF0.114
aa(lp1653
I1653
aF0.05
aF0.113
aa(lp1654
I1654
aF0.35
aF0.112
aa(lp1655
I1655
aF1.06
aF0.11
aa(lp1656
I1656
aF1.36
aF0.108
aa(lp1657
I1657
aF2.07
aF0.108
aa(lp1658
I1658
aF2.37
aF0.108
aa(lp1659
I1659
aF3.08
aF0.108
aa(lp1660
I1660
aF3.38
aF0.108
aa(lp1661
I1661
aF4.09
aF0.108
aa(lp1662
I1662
aF4.4
aF0.108
aa(lp1663
I1663
aF5.1
aF0.107
aa(lp1664
I1664
aF5.41
aF0.107
aa(lp1665
I1665
aF6.11
aF0.106
aa(lp1666
I1666
aF6.42
aF0.105
aa(lp1667
I1667
aF7.12
aF0.105
aa(lp1668
I1668
aF7.43
aF0.102
aa(lp1669
I1669
aF8.13
aF0.102
aa(lp1670
I1670
aF8.44
aF0.101
aa(lp1671
I1671
aF9.14
aF0.101
aa(lp1672
I1672
aF9.45
aF0.1
aa(lp1673
I1673
aF10.15
aF0.1
aa(lp1674
I1674
aF10.46
aF0.099
aa(lp1675
I1675
aF11.16
aF0.097
aa(lp1676
I1676
aF11.47
aF0.095
aa(lp1677
I1677
aF12.18
aF0.093
aa(lp1678
I1678
aF12.48
aF0.09
aa(lp1679
I1679
aF13.19
aF0.087
aa(lp1680
I1680
aF13.49
aF0.087
aa(lp1681
I1681
aF14.2
aF0.086
aa(lp1682
I1682
aF14.5
aF0.086
aa(lp1683
I1683
aF15.21
aF0.084
aa(lp1684
I1684
aF15.51
aF0.081
aa(lp1685
I1685
aF16.22
aF0.079
aa(lp1686
I1686
aF16.52
aF0.079
aa(lp1687
I1687
aF17.23
aF0.077
aa(lp1688
I1688
aF17.53
aF0.075
aa(lp1689
I1689
aF18.24
aF0.072
aa(lp1690
I1690
aF18.54
aF0.071
aa(lp1691
I1691
aF19.25
aF0.067
aa(lp1692
I1692
aF19.55
aF0.067
aa(lp1693
I1693
aF20.26
aF0.064
aa(lp1694
I1694
aF20.57
aF0.06
aa(lp1695
I1695
aF21.27
aF0.059
aa(lp1696
I1696
aF21.58
aF0.058
aa(lp1697
I1697
aF22.28
aF0.057
aa(lp1698
I1698
aF22.59
aF0.058
aa(lp1699
I1699
aF23.29
aF0.057
aa(lp1700
I1700
aF0.0
aF0.055
aa(lp1701
I1701
aF0.3
aF0.055
aa(lp1702
I1702
aF1.01
aF0.053
aa(lp1703
I1703
aF1.31
aF0.055
aa(lp1704
I1704
aF2.02
aF0.057
aa(lp1705
I1705
aF2.32
aF0.057
aa(lp1706
I1706
aF3.03
aF0.057
aa(lp1707
I1707
aF3.33
aF0.057
aa(lp1708
I1708
aF4.04
aF0.058
aa(lp1709
I1709
aF4.34
aF0.058
aa(lp1710
I1710
aF5.05
aF0.058
aa(lp1711
I1711
aF5.36
aF0.058
aa(lp1712
I1712
aF6.06
aF0.063
aa(lp1713
I1713
aF6.37
aF0.064
aa(lp1714
I1714
aF7.07
aF0.064
aa(lp1715
I1715
aF7.38
aF0.065
aa(lp1716
I1716
aF8.08
aF0.064
aa(lp1717
I1717
aF8.39
aF0.062
aa(lp1718
I1718
aF9.09
aF0.058
aa(lp1719
I1719
aF9.4
aF0.057
aa(lp1720
I1720
aF10.1
aF0.051
aa(lp1721
I1721
aF10.41
aF0.05
aa(lp1722
I1722
aF11.11
aF0.05
aa(lp1723
I1723
aF11.42
aF0.048
aa(lp1724
I1724
aF12.12
aF0.045
aa(lp1725
I1725
aF12.43
aF0.043
aa(lp1726
I1726
aF13.14
aF0.043
aa(lp1727
I1727
aF13.44
aF0.043
aa(lp1728
I1728
aF14.15
aF0.04
aa(lp1729
I1729
aF14.45
aF0.036
aa(lp1730
I1730
aF15.16
aF0.036
aa(lp1731
I1731
aF15.46
aF0.031
aa(lp1732
I1732
aF16.17
aF0.029
aa(lp1733
I1733
aF16.47
aF0.029
aa(lp1734
I1734
aF17.18
aF0.024
aa(lp1735
I1735
aF17.48
aF0.021
aa(lp1736
I1736
aF18.19
aF0.022
aa(lp1737
I1737
aF18.49
aF0.022
aa(lp1738
I1738
aF19.2
aF0.021
aa(lp1739
I1739
aF19.5
aF0.02
aa(lp1740
I1740
aF20.21
aF0.017
aa(lp1741
I1741
aF20.51
aF0.014
aa(lp1742
I1742
aF21.22
aF0.014
aa(lp1743
I1743
aF21.53
aF0.014
aa(lp1744
I1744
aF22.23
aF0.015
aa(lp1745
I1745
aF22.54
aF0.015
aa(lp1746
I1746
aF23.24
aF0.015
aa(lp1747
I1747
aF23.55
aF0.014
aa(lp1748
I1748
aF0.25
aF0.015
aa(lp1749
I1749
aF0.56
aF0.015
aa(lp1750
I1750
aF1.26
aF0.014
aa(lp1751
I1751
aF1.57
aF0.015
aa(lp1752
I1752
aF2.27
aF0.018
aa(lp1753
I1753
aF2.58
aF0.02
aa(lp1754
I1754
aF3.28
aF0.02
aa(lp1755
I1755
aF3.59
aF0.018
aa(lp1756
I1756
aF4.29
aF0.015
aa(lp1757
I1757
aF5.0
aF0.015
aa(lp1758
I1758
aF5.3
aF0.015
aa(lp1759
I1759
aF6.01
aF0.014
aa(lp1760
I1760
aF6.32
aF0.015
aa(lp1761
I1761
aF7.02
aF0.014
aa(lp1762
I1762
aF7.33
aF0.014
aa(lp1763
I1763
aF8.03
aF0.015
aa(lp1764
I1764
aF8.34
aF0.014
aa(lp1765
I1765
aF9.04
aF0.015
aa(lp1766
I1766
aF9.35
aF0.014
aa(lp1767
I1767
aF10.05
aF0.015
aa(lp1768
I1768
aF10.36
aF0.015
aa(lp1769
I1769
aF11.06
aF0.015
aa(lp1770
I1770
aF11.37
aF0.014
aa(lp1771
I1771
aF12.07
aF0.014
aa(lp1772
I1772
aF12.38
aF0.013
aa(lp1773
I1773
aF13.08
aF0.011
aa(lp1774
I1774
aF13.39
aF0.007
aa(lp1775
I1775
aF14.1
aF0.008
aa(lp1776
I1776
aF14.4
aF0.007
aa(lp1777
I1777
aF15.11
aF0.007
aa(lp1778
I1778
aF15.41
aF0.007
aa(lp1779
I1779
aF16.12
aF0.007
aa(lp1780
I1780
aF16.42
aF0.006
aa(lp1781
I1781
aF17.13
aF0.007
aa(lp1782
I1782
aF17.43
aF0.006
aa(lp1783
I1783
aF18.14
aF0.006
aa(lp1784
I1784
aF18.44
aF0.006
aa(lp1785
I1785
aF19.15
aF0.006
aa(lp1786
I1786
aF19.45
aF0.006
aa(lp1787
I1787
aF20.16
aF0.007
aa(lp1788
I1788
aF20.46
aF0.007
aa(lp1789
I1789
aF21.17
aF0.006
aa(lp1790
I1790
aF21.47
aF0.005
aa(lp1791
I1791
aF22.18
aF0.002
aa(lp1792
I1792
aF22.49
aF0.002
aa(lp1793
I1793
aF23.19
aF0.005
aa(lp1794
I1794
aF23.5
aF0.007
aa(lp1795
I1795
aF0.2
aF0.007
aa(lp1796
I1796
aF0.51
aF0.007
aa(lp1797
I1797
aF1.21
aF0.007
aa(lp1798
I1798
aF1.52
aF0.007
aa(lp1799
I1799
aF2.22
aF0.007
aa(lp1800
I1800
aF2.53
aF0.007
aa(lp1801
I1801
aF3.23
aF0.007
aa(lp1802
I1802
aF3.54
aF0.006
aa(lp1803
I1803
aF4.24
aF0.006
aa(lp1804
I1804
aF4.55
aF0.006
aa(lp1805
I1805
aF5.25
aF0.006
aa(lp1806
I1806
aF5.56
aF0.005
aa(lp1807
I1807
aF6.27
aF0.005
aa(lp1808
I1808
aF6.57
aF0.004
aa(lp1809
I1809
aF7.28
aF0.002
aa(lp1810
I1810
aF7.58
aF0.001
aa(lp1811
I1811
aF8.29
aF0.001
aa(lp1812
I1812
aF8.59
aF0.004
aa(lp1813
I1813
aF9.3
aF0.002
aa(lp1814
I1814
aF10.0
aF0.002
aa(lp1815
I1815
aF10.31
aF0.001
aa(lp1816
I1816
aF11.01
aF0.0
aa(lp1817
I1817
aF11.32
aF0.0
aa(lp1818
I1818
aF12.02
aF0.002
aa(lp1819
I1819
aF12.33
aF0.001
aa(lp1820
I1820
aF13.03
aF0.001
aa(lp1821
I1821
aF13.34
aF0.0
aa(lp1822
I1822
aF14.04
aF0.0
aa(lp1823
I1823
aF14.35
aF0.0
aa(lp1824
I1824
aF15.06
aF0.0
aa(lp1825
I1825
aF15.36
aF0.0
aa(lp1826
I1826
aF16.07
aF0.0
aa(lp1827
I1827
aF16.37
aF0.0
aa(lp1828
I1828
aF17.08
aF0.0
aa(lp1829
I1829
aF17.38
aF0.0
aa(lp1830
I1830
aF18.09
aF0.0
aa(lp1831
I1831
aF18.39
aF0.0
aa(lp1832
I1832
aF19.1
aF0.0
aa(lp1833
I1833
aF19.4
aF0.0
aa(lp1834
I1834
aF20.11
aF0.0
aa(lp1835
I1835
aF20.41
aF0.0
aa(lp1836
I1836
aF21.12
aF0.0
aa(lp1837
I1837
aF21.42
aF0.0
aa(lp1838
I1838
aF22.13
aF0.0
aa(lp1839
I1839
aF22.43
aF0.0
aa(lp1840
I1840
aF23.14
aF0.0
aa(lp1841
I1841
aF23.45
aF0.0
aa(lp1842
I1842
aF0.15
aF0.0
aa(lp1843
I1843
aF0.46
aF0.381
aa(lp1844
I1844
aF1.16
aF0.311
aa(lp1845
I1845
aF1.47
aF0.269
aa(lp1846
I1846
aF2.17
aF0.25
aa(lp1847
I1847
aF2.48
aF0.247
aa(lp1848
I1848
aF3.18
aF0.245
aa(lp1849
I1849
aF3.49
aF0.238
aa(lp1850
I1850
aF4.19
aF0.232
aa(lp1851
I1851
aF4.5
aF0.228
aa(lp1852
I1852
aF5.2
aF0.226
aa(lp1853
I1853
aF5.51
aF0.225
aa(lp1854
I1854
aF6.21
aF0.222
aa(lp1855
I1855
aF6.52
aF0.221
aa(lp1856
I1856
aF7.23
aF0.223
aa(lp1857
I1857
aF7.53
aF0.222
aa(lp1858
I1858
aF8.24
aF0.224
aa(lp1859
I1859
aF8.54
aF0.225
aa(lp1860
I1860
aF9.25
aF0.224
aa(lp1861
I1861
aF9.55
aF0.221
aa(lp1862
I1862
aF10.26
aF0.222
aa(lp1863
I1863
aF10.56
aF0.221
aa(lp1864
I1864
aF11.27
aF0.218
aa(lp1865
I1865
aF11.57
aF0.22
aa(lp1866
I1866
aF12.28
aF0.218
aa(lp1867
I1867
aF12.58
aF0.214
aa(lp1868
I1868
aF13.29
aF0.214
aa(lp1869
I1869
aF13.59
aF0.208
aa(lp1870
I1870
aF14.3
aF0.202
aa(lp1871
I1871
aF15.0
aF0.198
aa(lp1872
I1872
aF15.31
aF0.195
aa(lp1873
I1873
aF16.02
aF0.192
aa(lp1874
I1874
aF16.32
aF0.192
aa(lp1875
I1875
aF17.03
aF0.188
aa(lp1876
I1876
aF17.33
aF0.186
aa(lp1877
I1877
aF18.04
aF0.181
aa(lp1878
I1878
aF18.34
aF0.177
aa(lp1879
I1879
aF19.05
aF0.173
aa(lp1880
I1880
aF19.35
aF0.167
aa(lp1881
I1881
aF20.06
aF0.162
aa(lp1882
I1882
aF20.36
aF0.156
aa(lp1883
I1883
aF21.07
aF0.152
aa(lp1884
I1884
aF21.37
aF0.151
aa(lp1885
I1885
aF22.08
aF0.149
aa(lp1886
I1886
aF22.38
aF0.145
aa(lp1887
I1887
aF23.09
aF0.143
aa(lp1888
I1888
aF23.4
aF0.14
aa(lp1889
I1889
aF0.1
aF0.137
aa(lp1890
I1890
aF0.41
aF0.135
aa(lp1891
I1891
aF1.11
aF0.134
aa(lp1892
I1892
aF1.42
aF0.127
aa(lp1893
I1893
aF2.12
aF0.123
aa(lp1894
I1894
aF2.43
aF0.122
aa(lp1895
I1895
aF3.13
aF0.121
aa(lp1896
I1896
aF3.44
aF0.116
aa(lp1897
I1897
aF4.14
aF0.112
aa(lp1898
I1898
aF4.45
aF0.11
aa(lp1899
I1899
aF5.15
aF0.108
aa(lp1900
I1900
aF5.46
aF0.108
aa(lp1901
I1901
aF6.16
aF0.106
aa(lp1902
I1902
aF6.47
aF0.102
aa(lp1903
I1903
aF7.17
aF0.1
aa(lp1904
I1904
aF7.48
aF0.098
aa(lp1905
I1905
aF8.19
aF0.093
aa(lp1906
I1906
aF8.49
aF0.089
aa(lp1907
I1907
aF9.2
aF0.086
aa(lp1908
I1908
aF9.5
aF0.086
aa(lp1909
I1909
aF10.21
aF0.085
aa(lp1910
I1910
aF10.51
aF0.082
aa(lp1911
I1911
aF11.22
aF0.079
aa(lp1912
I1912
aF11.52
aF0.079
aa(lp1913
I1913
aF12.23
aF0.078
aa(lp1914
I1914
aF12.53
aF0.078
aa(lp1915
I1915
aF13.24
aF0.075
aa(lp1916
I1916
aF13.54
aF0.073
aa(lp1917
I1917
aF14.25
aF0.071
aa(lp1918
I1918
aF14.55
aF0.069
aa(lp1919
I1919
aF15.26
aF0.065
aa(lp1920
I1920
aF15.56
aF0.066
aa(lp1921
I1921
aF16.27
aF0.064
aa(lp1922
I1922
aF16.58
aF0.065
aa(lp1923
I1923
aF17.28
aF0.064
aa(lp1924
I1924
aF17.59
aF0.058
aa(lp1925
I1925
aF18.29
aF0.057
aa(lp1926
I1926
aF19.0
aF0.055
aa(lp1927
I1927
aF19.3
aF0.053
aa(lp1928
I1928
aF20.01
aF0.056
aa(lp1929
I1929
aF20.31
aF0.056
aa(lp1930
I1930
aF21.02
aF0.055
aa(lp1931
I1931
aF21.32
aF0.054
aa(lp1932
I1932
aF22.03
aF0.05
aa(lp1933
I1933
aF22.33
aF0.05
aa(lp1934
I1934
aF23.04
aF0.049
aa(lp1935
I1935
aF23.34
aF0.044
aa(lp1936
I1936
aF0.05
aF0.044
aa(lp1937
I1937
aF0.35
aF0.044
aa(lp1938
I1938
aF1.06
aF0.043
aa(lp1939
I1939
aF1.37
aF0.041
aa(lp1940
I1940
aF2.07
aF0.037
aa(lp1941
I1941
aF2.38
aF0.036
aa(lp1942
I1942
aF3.08
aF0.036
aa(lp1943
I1943
aF3.39
aF0.036
aa(lp1944
I1944
aF4.09
aF0.04
aa(lp1945
I1945
aF4.4
aF0.039
aa(lp1946
I1946
aF5.1
aF0.037
aa(lp1947
I1947
aF5.41
aF0.036
aa(lp1948
I1948
aF6.11
aF0.036
aa(lp1949
I1949
aF6.42
aF0.035
aa(lp1950
I1950
aF7.12
aF0.03
aa(lp1951
I1951
aF7.43
aF0.029
aa(lp1952
I1952
aF8.13
aF0.029
aa(lp1953
I1953
aF8.44
aF0.029
aa(lp1954
I1954
aF9.15
aF0.028
aa(lp1955
I1955
aF9.45
aF0.022
aa(lp1956
I1956
aF10.16
aF0.021
aa(lp1957
I1957
aF10.46
aF0.021
aa(lp1958
I1958
aF11.17
aF0.022
aa(lp1959
I1959
aF11.47
aF0.022
aa(lp1960
I1960
aF12.18
aF0.021
aa(lp1961
I1961
aF12.48
aF0.021
aa(lp1962
I1962
aF13.19
aF0.017
aa(lp1963
I1963
aF13.49
aF0.015
aa(lp1964
I1964
aF14.2
aF0.014
aa(lp1965
I1965
aF14.5
aF0.014
aa(lp1966
I1966
aF15.21
aF0.015
aa(lp1967
I1967
aF15.51
aF0.014
aa(lp1968
I1968
aF16.22
aF0.014
aa(lp1969
I1969
aF16.52
aF0.014
aa(lp1970
I1970
aF17.23
aF0.014
aa(lp1971
I1971
aF17.54
aF0.012
aa(lp1972
I1972
aF18.24
aF0.009
aa(lp1973
I1973
aF18.55
aF0.008
aa(lp1974
I1974
aF19.25
aF0.007
aa(lp1975
I1975
aF19.56
aF0.007
aa(lp1976
I1976
aF20.26
aF0.007
aa(lp1977
I1977
aF20.57
aF0.007
aa(lp1978
I1978
aF21.27
aF0.007
aa(lp1979
I1979
aF21.58
aF0.008
aa(lp1980
I1980
aF22.28
aF0.007
aa(lp1981
I1981
aF22.59
aF0.008
aa(lp1982
I1982
aF23.29
aF0.046
aa(lp1983
I1983
aF0.0
aF0.283
aa(lp1984
I1984
aF0.3
aF0.264
aa(lp1985
I1985
aF1.01
aF0.256
aa(lp1986
I1986
aF1.32
aF0.248
aa(lp1987
I1987
aF2.02
aF0.243
aa(lp1988
I1988
aF2.33
aF0.233
aa(lp1989
I1989
aF3.03
aF0.226
aa(lp1990
I1990
aF3.34
aF0.222
aa(lp1991
I1991
aF4.04
aF0.219
aa(lp1992
I1992
aF4.35
aF0.215
aa(lp1993
I1993
aF5.05
aF0.209
aa(lp1994
I1994
aF5.36
aF0.205
aa(lp1995
I1995
aF6.06
aF0.201
aa(lp1996
I1996
aF6.37
aF0.197
aa(lp1997
I1997
aF7.07
aF0.193
aa(lp1998
I1998
aF7.38
aF0.188
aa(lp1999
I1999
aF8.08
aF0.187
aa(lp2000
I2000
aF8.39
aF0.18
aa(lp2001
I2001
aF9.09
aF0.176
aa(lp2002
I2002
aF9.4
aF0.173
aa(lp2003
I2003
aF10.11
aF0.172
aa(lp2004
I2004
aF10.41
aF0.168
aa(lp2005
I2005
aF11.12
aF0.164
aa(lp2006
I2006
aF11.42
aF0.161
aa(lp2007
I2007
aF12.13
aF0.158
aa(lp2008
I2008
aF12.43
aF0.157
aa(lp2009
I2009
aF13.14
aF0.153
aa(lp2010
I2010
aF13.44
aF0.145
aa(lp2011
I2011
aF14.15
aF0.144
aa(lp2012
I2012
aF14.45
aF0.169
aa(lp2013
I2013
aF15.16
aF0.179
aa(lp2014
I2014
aF15.46
aF0.179
aa(lp2015
I2015
aF16.17
aF0.177
aa(lp2016
I2016
aF16.47
aF0.174
aa(lp2017
I2017
aF17.18
aF0.172
aa(lp2018
I2018
aF17.48
aF0.172
aa(lp2019
I2019
aF18.19
aF0.168
aa(lp2020
I2020
aF18.5
aF0.162
aa(lp2021
I2021
aF19.2
aF0.159
aa(lp2022
I2022
aF19.51
aF0.157
aa(lp2023
I2023
aF20.21
aF0.155
aa(lp2024
I2024
aF20.52
aF0.15
aa(lp2025
I2025
aF21.22
aF0.147
aa(lp2026
I2026
aF21.53
aF0.147
aa(lp2027
I2027
aF22.23
aF0.144
aa(lp2028
I2028
aF22.54
aF0.143
aa(lp2029
I2029
aF23.24
aF0.14
aa(lp2030
I2030
aF23.55
aF0.139
aa(lp2031
I2031
aF0.25
aF0.137
aa(lp2032
I2032
aF0.56
aF0.136
aa(lp2033
I2033
aF1.26
aF0.134
aa(lp2034
I2034
aF1.57
aF0.131
aa(lp2035
I2035
aF2.27
aF0.129
aa(lp2036
I2036
aF2.58
aF0.124
aa(lp2037
I2037
aF3.29
aF0.122
aa(lp2038
I2038
aF3.59
aF0.119
aa(lp2039
I2039
aF4.3
aF0.117
aa(lp2040
I2040
aF5.0
aF0.115
aa(lp2041
I2041
aF5.31
aF0.114
aa(lp2042
I2042
aF6.01
aF0.116
aa(lp2043
I2043
aF6.32
aF0.113
aa(lp2044
I2044
aF7.02
aF0.111
aa(lp2045
I2045
aF7.33
aF0.109
aa(lp2046
I2046
aF8.03
aF0.107
aa(lp2047
I2047
aF8.34
aF0.102
aa(lp2048
I2048
aF9.04
aF0.101
aa(lp2049
I2049
aF9.35
aF0.1
aa(lp2050
I2050
aF10.05
aF0.095
aa(lp2051
I2051
aF10.36
aF0.092
aa(lp2052
I2052
aF11.07
aF0.09
aa(lp2053
I2053
aF11.37
aF0.087
aa(lp2054
I2054
aF12.08
aF0.087
aa(lp2055
I2055
aF12.38
aF0.086
aa(lp2056
I2056
aF13.09
aF0.086
aa(lp2057
I2057
aF13.39
aF0.085
aa(lp2058
I2058
aF14.1
aF0.085
aa(lp2059
I2059
aF14.4
aF0.081
aa(lp2060
I2060
aF15.11
aF0.078
aa(lp2061
I2061
aF15.41
aF0.073
aa(lp2062
I2062
aF16.12
aF0.07
aa(lp2063
I2063
aF16.42
aF0.067
aa(lp2064
I2064
aF17.13
aF0.065
aa(lp2065
I2065
aF17.43
aF0.064
aa(lp2066
I2066
aF18.14
aF0.064
aa(lp2067
I2067
aF18.44
aF0.063
aa(lp2068
I2068
aF19.15
aF0.06
aa(lp2069
I2069
aF19.46
aF0.058
aa(lp2070
I2070
aF20.16
aF0.055
aa(lp2071
I2071
aF20.47
aF0.051
aa(lp2072
I2072
aF21.17
aF0.05
aa(lp2073
I2073
aF21.48
aF0.049
aa(lp2074
I2074
aF22.18
aF0.045
aa(lp2075
I2075
aF22.49
aF0.044
aa(lp2076
I2076
aF23.19
aF0.043
aa(lp2077
I2077
aF23.5
aF0.037
aa(lp2078
I2078
aF0.2
aF0.035
aa(lp2079
I2079
aF0.51
aF0.03
aa(lp2080
I2080
aF1.21
aF0.029
aa(lp2081
I2081
aF1.52
aF0.029
aa(lp2082
I2082
aF2.22
aF0.029
aa(lp2083
I2083
aF2.53
aF0.027
aa(lp2084
I2084
aF3.24
aF0.022
aa(lp2085
I2085
aF3.54
aF0.022
aa(lp2086
I2086
aF4.25
aF0.022
aa(lp2087
I2087
aF4.55
aF0.022
aa(lp2088
I2088
aF5.26
aF0.021
aa(lp2089
I2089
aF5.56
aF0.022
aa(lp2090
I2090
aF6.27
aF0.021
aa(lp2091
I2091
aF6.57
aF0.021
aa(lp2092
I2092
aF7.28
aF0.021
aa(lp2093
I2093
aF7.58
aF0.02
aa(lp2094
I2094
aF8.29
aF0.017
aa(lp2095
I2095
aF8.59
aF0.015
aa(lp2096
I2096
aF9.3
aF0.014
aa(lp2097
I2097
aF10.0
aF0.014
aa(lp2098
I2098
aF10.31
aF0.015
aa(lp2099
I2099
aF11.01
aF0.015
aa(lp2100
I2100
aF11.32
aF0.014
aa(lp2101
I2101
aF12.03
aF0.014
aa(lp2102
I2102
aF12.33
aF0.014
aa(lp2103
I2103
aF13.04
aF0.012
aa(lp2104
I2104
aF13.34
aF0.008
aa(lp2105
I2105
aF14.05
aF0.007
aa(lp2106
I2106
aF14.35
aF0.007
aa(lp2107
I2107
aF15.06
aF0.007
aa(lp2108
I2108
aF15.36
aF0.007
aa(lp2109
I2109
aF16.07
aF0.007
aa(lp2110
I2110
aF16.37
aF0.007
aa(lp2111
I2111
aF17.08
aF0.007
aa(lp2112
I2112
aF17.38
aF0.007
aa(lp2113
I2113
aF18.09
aF0.007
aa(lp2114
I2114
aF18.39
aF0.007
aa(lp2115
I2115
aF19.1
aF0.007
aa(lp2116
I2116
aF19.4
aF0.007
aa(lp2117
I2117
aF20.11
aF0.006
aa(lp2118
I2118
aF20.42
aF0.002
aa(lp2119
I2119
aF21.12
aF0.0
aa(lp2120
I2120
aF21.43
aF0.0
aa(lp2121
I2121
aF22.13
aF0.0
aa(lp2122
I2122
aF22.44
aF0.0
aa(lp2123
I2123
aF23.14
aF0.0
aa(lp2124
I2124
aF23.45
aF0.0
aa(lp2125
I2125
aF0.15
aF0.0
aa(lp2126
I2126
aF0.46
aF0.001
aa(lp2127
I2127
aF1.16
aF0.0
aa(lp2128
I2128
aF1.47
aF0.0
aa(lp2129
I2129
aF2.17
aF0.0
aa(lp2130
I2130
aF2.48
aF0.0
aa(lp2131
I2131
aF3.18
aF0.0
aa(lp2132
I2132
aF3.49
aF0.0
aa(lp2133
I2133
aF4.2
aF0.001
aa(lp2134
I2134
aF4.5
aF0.0
aa(lp2135
I2135
aF5.21
aF0.0
aa(lp2136
I2136
aF5.51
aF0.001
aa(lp2137
I2137
aF6.22
aF0.0
aa(lp2138
I2138
aF6.52
aF0.0
aa(lp2139
I2139
aF7.23
aF0.0
aa(lp2140
I2140
aF7.53
aF0.0
aa(lp2141
I2141
aF8.24
aF0.0
aa(lp2142
I2142
aF8.54
aF0.0
aa(lp2143
I2143
aF9.25
aF0.0
aa(lp2144
I2144
aF9.55
aF0.0
aa(lp2145
I2145
aF10.26
aF0.0
aa(lp2146
I2146
aF10.56
aF0.0
aa(lp2147
I2147
aF11.27
aF0.0
aa(lp2148
I2148
aF11.57
aF0.0
aa(lp2149
I2149
aF12.28
aF0.0
aa(lp2150
I2150
aF12.59
aF0.0
aa(lp2151
I2151
aF13.29
aF0.0
aa(lp2152
I2152
aF14.0
aF0.0
aa(lp2153
I2153
aF14.3
aF0.0
aa(lp2154
I2154
aF15.01
aF0.0
aa(lp2155
I2155
aF15.31
aF0.0
aa(lp2156
I2156
aF16.02
aF0.0
aa(lp2157
I2157
aF16.32
aF0.0
aa(lp2158
I2158
aF17.03
aF0.0
aa(lp2159
I2159
aF17.33
aF0.0
aa(lp2160
I2160
aF18.04
aF0.0
aa(lp2161
I2161
aF18.34
aF0.0
aa(lp2162
I2162
aF19.05
aF0.0
aa(lp2163
I2163
aF19.35
aF0.0
aa(lp2164
I2164
aF20.06
aF0.0
aa(lp2165
I2165
aF20.37
aF0.0
aa(lp2166
I2166
aF21.07
aF0.0
aa(lp2167
I2167
aF21.38
aF0.0
aa(lp2168
I2168
aF22.08
aF0.0
aa(lp2169
I2169
aF22.39
aF0.0
aa(lp2170
I2170
aF23.09
aF0.0
aa(lp2171
I2171
aF23.4
aF0.0
aa(lp2172
I2172
aF0.1
aF0.0
aa(lp2173
I2173
aF0.41
aF0.0
aa(lp2174
I2174
aF1.11
aF0.0
aa(lp2175
I2175
aF1.42
aF0.001
aa(lp2176
I2176
aF2.12
aF0.0
aa(lp2177
I2177
aF2.43
aF0.0
aa(lp2178
I2178
aF3.13
aF0.0
aa(lp2179
I2179
aF3.44
aF0.0
aa(lp2180
I2180
aF4.14
aF0.001
aa(lp2181
I2181
aF4.45
aF0.0
aa(lp2182
I2182
aF5.16
aF0.0
aa(lp2183
I2183
aF5.46
aF0.001
aa(lp2184
I2184
aF6.17
aF0.001
aa(lp2185
I2185
aF6.47
aF0.0
aa(lp2186
I2186
aF7.18
aF0.0
aa(lp2187
I2187
aF7.48
aF0.0
aa(lp2188
I2188
aF8.19
aF0.001
aa(lp2189
I2189
aF8.49
aF0.0
aa(lp2190
I2190
aF9.2
aF0.0
aa(lp2191
I2191
aF9.5
aF0.0
aa(lp2192
I2192
aF10.21
aF0.0
aa(lp2193
I2193
aF10.51
aF0.0
aa(lp2194
I2194
aF11.22
aF0.0
aa(lp2195
I2195
aF11.52
aF0.0
aa(lp2196
I2196
aF12.23
aF0.0
aa(lp2197
I2197
aF12.53
aF0.0
aa(lp2198
I2198
aF13.24
aF0.0
aa(lp2199
I2199
aF13.55
aF0.0
aa(lp2200
I2200
aF14.25
aF0.0
aa(lp2201
I2201
aF14.56
aF0.0
aa(lp2202
I2202
aF15.26
aF0.0
aa(lp2203
I2203
aF15.57
aF0.0
aa(lp2204
I2204
aF16.27
aF0.0
aa(lp2205
I2205
aF16.58
aF0.0
aa(lp2206
I2206
aF17.28
aF0.0
aa(lp2207
I2207
aF17.59
aF0.0
aa(lp2208
I2208
aF18.29
aF0.0
aa(lp2209
I2209
aF19.0
aF0.0
aa(lp2210
I2210
aF19.3
aF0.0
aa(lp2211
I2211
aF20.01
aF0.0
aa(lp2212
I2212
aF20.31
aF0.0
aa(lp2213
I2213
aF21.02
aF0.0
aa(lp2214
I2214
aF21.33
aF0.0
aa(lp2215
I2215
aF22.03
aF0.0
aa(lp2216
I2216
aF22.34
aF0.0
aa(lp2217
I2217
aF23.04
aF0.0
aa(lp2218
I2218
aF23.35
aF0.0
aa(lp2219
I2219
aF0.05
aF0.0
aa(lp2220
I2220
aF0.36
aF0.0
aa(lp2221
I2221
aF1.06
aF0.0
aa(lp2222
I2222
aF1.37
aF0.0
aa(lp2223
I2223
aF2.07
aF0.0
aa(lp2224
I2224
aF2.38
aF0.0
aa(lp2225
I2225
aF3.08
aF0.0
aa(lp2226
I2226
aF3.39
aF0.0
aa(lp2227
I2227
aF4.09
aF0.0
aa(lp2228
I2228
aF4.4
aF0.0
aa(lp2229
I2229
aF5.1
aF0.0
aa(lp2230
I2230
aF5.41
aF0.0
aa(lp2231
I2231
aF6.12
aF0.0
aa(lp2232
I2232
aF6.42
aF0.0
aa(lp2233
I2233
aF7.13
aF0.0
aa(lp2234
I2234
aF7.43
aF0.0
aa(lp2235
I2235
aF8.14
aF0.0
aa(lp2236
I2236
aF8.44
aF0.0
aa(lp2237
I2237
aF9.15
aF0.0
aa(lp2238
I2238
aF9.45
aF0.0
aa(lp2239
I2239
aF10.16
aF0.0
aa(lp2240
I2240
aF10.46
aF0.0
aa(lp2241
I2241
aF11.17
aF0.0
aa(lp2242
I2242
aF11.47
aF0.0
aa(lp2243
I2243
aF12.18
aF0.0
aa(lp2244
I2244
aF12.48
aF0.0
aa(lp2245
I2245
aF13.19
aF0.0
aa(lp2246
I2246
aF13.49
aF0.0
aa(lp2247
I2247
aF14.2
aF0.0
aa(lp2248
I2248
aF14.51
aF0.0
aa(lp2249
I2249
aF15.21
aF0.0
aa(lp2250
I2250
aF15.52
aF0.0
aa(lp2251
I2251
aF16.22
aF0.0
aa(lp2252
I2252
aF16.53
aF0.0
aa(lp2253
I2253
aF17.23
aF0.0
aa(lp2254
I2254
aF17.54
aF0.0
aa(lp2255
I2255
aF18.24
aF0.0
aa(lp2256
I2256
aF18.55
aF0.0
aa(lp2257
I2257
aF19.25
aF0.0
aa(lp2258
I2258
aF19.56
aF0.0
aa(lp2259
I2259
aF20.26
aF0.0
aa(lp2260
I2260
aF20.57
aF0.0
aa(lp2261
I2261
aF21.27
aF0.0
aa(lp2262
I2262
aF21.58
aF0.0
aa(lp2263
I2263
aF22.29
aF0.0
aa(lp2264
I2264
aF22.59
aF0.0
aa(lp2265
I2265
aF23.3
aF0.0
aa(lp2266
I2266
aF0.0
aF0.0
aa(lp2267
I2267
aF0.31
aF0.0
aa(lp2268
I2268
aF1.01
aF0.088
aa(lp2269
I2269
aF1.32
aF0.12
aa(lp2270
I2270
aF2.02
aF0.126
aa(lp2271
I2271
aF2.33
aF0.144
aa(lp2272
I2272
aF3.03
aF0.165
aa(lp2273
I2273
aF3.34
aF0.167
aa(lp2274
I2274
aF4.04
aF0.171
aa(lp2275
I2275
aF18.36
aF0.913
aa(lp2276
I2276
aF19.06
aF0.0
aa.